
build/navilos.axf:     file format elf32-littlearm


Disassembly of section .text:

00000000 <vector_start>:

  .global vector_start @ 다른 파일에서도 사용 가능한 전역 심볼로 정의.
  .global vector_end

  vector_start: @ 레이블 선언
    LDR PC, reset_handler_addr
       0:	e59ff018 	ldr	pc, [pc, #24]	@ 20 <reset_handler_addr>
    LDR PC, undef_handler_addr
       4:	e59ff018 	ldr	pc, [pc, #24]	@ 24 <undef_handler_addr>
    LDR PC, svc_handler_addr
       8:	e59ff018 	ldr	pc, [pc, #24]	@ 28 <svc_handler_addr>
    LDR PC, pfch_abt_handler_addr
       c:	e59ff018 	ldr	pc, [pc, #24]	@ 2c <pfch_abt_handler_addr>
    LDR PC, data_abt_handler_addr
      10:	e59ff018 	ldr	pc, [pc, #24]	@ 30 <data_abt_handler_addr>
    B .
      14:	eafffffe 	b	14 <vector_start+0x14>
    LDR PC, irq_handler_addr
      18:	e59ff014 	ldr	pc, [pc, #20]	@ 34 <irq_handler_addr>
    LDR PC, fiq_handler_addr
      1c:	e59ff014 	ldr	pc, [pc, #20]	@ 38 <fiq_handler_addr>

00000020 <reset_handler_addr>:
      20:	0000003c 	andeq	r0, r0, ip, lsr r0

00000024 <undef_handler_addr>:
      24:	000000b8 	strheq	r0, [r0], -r8

00000028 <svc_handler_addr>:
      28:	000000b8 	strheq	r0, [r0], -r8

0000002c <pfch_abt_handler_addr>:
      2c:	000000b8 	strheq	r0, [r0], -r8

00000030 <data_abt_handler_addr>:
      30:	000000b8 	strheq	r0, [r0], -r8

00000034 <irq_handler_addr>:
      34:	000000d4 	ldrdeq	r0, [r0], -r4

00000038 <fiq_handler_addr>:
      38:	000000f0 	strdeq	r0, [r0], -r0	@ <UNPREDICTABLE>

0000003c <vector_end>:
    irq_handler_addr:      .word Irq_Handler
    fiq_handler_addr:      .word Fiq_Handler
  vector_end:

  reset_handler:
    MRS r0, cpsr @ move PSR to Register
      3c:	e10f0000 	mrs	r0, CPSR
    BIC r1, r0, #0x1F @ r0에서 하위 5비트 클리어 후 r1에 저장
      40:	e3c0101f 	bic	r1, r0, #31
    ORR r1, r1, #ARM_MODE_BIT_SVC @ r1과 동작모드 비트 or하여 r1에 저장
      44:	e3811013 	orr	r1, r1, #19
    MSR cpsr, r1 @ 동작 모드 변경
      48:	e129f001 	msr	CPSR_fc, r1
    LDR sp, =SVC_STACK_TOP @ 해당 동작 모드의 스택 주소 초기화
      4c:	e59fd068 	ldr	sp, [pc, #104]	@ bc <dummy_handler+0x4>

    MRS r0, cpsr
      50:	e10f0000 	mrs	r0, CPSR
    BIC r1, r0, #0x1F
      54:	e3c0101f 	bic	r1, r0, #31
    ORR r1, r1, #ARM_MODE_BIT_IRQ
      58:	e3811012 	orr	r1, r1, #18
    MSR cpsr, r1
      5c:	e129f001 	msr	CPSR_fc, r1
    LDR sp, =IRQ_STACK_TOP
      60:	e59fd058 	ldr	sp, [pc, #88]	@ c0 <dummy_handler+0x8>

    MRS r0, cpsr
      64:	e10f0000 	mrs	r0, CPSR
    BIC r1, r0, #0x1F
      68:	e3c0101f 	bic	r1, r0, #31
    ORR r1, r1, #ARM_MODE_BIT_FIQ
      6c:	e3811011 	orr	r1, r1, #17
    MSR cpsr, r1
      70:	e129f001 	msr	CPSR_fc, r1
    LDR sp, =FIQ_STACK_TOP
      74:	e59fd048 	ldr	sp, [pc, #72]	@ c4 <dummy_handler+0xc>

    MRS r0, cpsr
      78:	e10f0000 	mrs	r0, CPSR
    BIC r1, r0, #0x1F
      7c:	e3c0101f 	bic	r1, r0, #31
    ORR r1, r1, #ARM_MODE_BIT_ABT
      80:	e3811017 	orr	r1, r1, #23
    MSR cpsr, r1
      84:	e129f001 	msr	CPSR_fc, r1
    LDR sp, =ABT_STACK_TOP
      88:	e59fd038 	ldr	sp, [pc, #56]	@ c8 <dummy_handler+0x10>

    MRS r0, cpsr
      8c:	e10f0000 	mrs	r0, CPSR
    BIC r1, r0, #0x1F
      90:	e3c0101f 	bic	r1, r0, #31
    ORR r1, r1, #ARM_MODE_BIT_UND
      94:	e381101b 	orr	r1, r1, #27
    MSR cpsr, r1
      98:	e129f001 	msr	CPSR_fc, r1
    LDR sp, =UND_STACK_TOP
      9c:	e59fd028 	ldr	sp, [pc, #40]	@ cc <dummy_handler+0x14>

    MRS r0, cpsr
      a0:	e10f0000 	mrs	r0, CPSR
    BIC r1, r0, #0x1F
      a4:	e3c0101f 	bic	r1, r0, #31
    ORR r1, r1, #ARM_MODE_BIT_SYS
      a8:	e381101f 	orr	r1, r1, #31
    MSR cpsr, r1
      ac:	e129f001 	msr	CPSR_fc, r1
    LDR sp, =USRSYS_STACK_TOP
      b0:	e59fd018 	ldr	sp, [pc, #24]	@ d0 <dummy_handler+0x18>

    BL main
      b4:	eb00000f 	bl	f8 <main>

000000b8 <dummy_handler>:

  dummy_handler:
    B .
      b8:	eafffffe 	b	b8 <dummy_handler>
    LDR sp, =SVC_STACK_TOP @ 해당 동작 모드의 스택 주소 초기화
      bc:	003ffffc 	ldrshteq	pc, [pc], -ip	@ <UNPREDICTABLE>
    LDR sp, =IRQ_STACK_TOP
      c0:	004ffffc 	strdeq	pc, [pc], #-252	@ <UNPREDICTABLE>
    LDR sp, =FIQ_STACK_TOP
      c4:	005ffffc 	ldrsheq	pc, [pc], #-252	@ <UNPREDICTABLE>
    LDR sp, =ABT_STACK_TOP
      c8:	006ffffc 	strdeq	pc, [pc], #-252	@ <UNPREDICTABLE>
    LDR sp, =UND_STACK_TOP
      cc:	007ffffc 	ldrshteq	pc, [pc], #-252	@ <UNPREDICTABLE>
    LDR sp, =USRSYS_STACK_TOP
      d0:	002ffffc 	strdeq	pc, [pc], -ip	@ <UNPREDICTABLE>

000000d4 <Irq_Handler>:
#include "stdbool.h"
#include "stdint.h"
#include "HalGic.h"

__attribute__ ((interrupt ("IRQ"))) void Irq_Handler(void) {
      d4:	e24ee004 	sub	lr, lr, #4
      d8:	e92d581f 	push	{r0, r1, r2, r3, r4, fp, ip, lr}
      dc:	e28db01c 	add	fp, sp, #28
  Hal_interrupt_run_handler();
      e0:	eb000230 	bl	9a8 <Hal_interrupt_run_handler>
}
      e4:	e320f000 	nop	{0}
      e8:	e24bd01c 	sub	sp, fp, #28
      ec:	e8fd981f 	ldm	sp!, {r0, r1, r2, r3, r4, fp, ip, pc}^

000000f0 <Fiq_Handler>:

__attribute__ ((interrupt ("FIQ"))) void Fiq_Handler(void) {
      f0:	e24db004 	sub	fp, sp, #4
  while (true);
      f4:	eafffffe 	b	f4 <Fiq_Handler+0x4>

000000f8 <main>:
static void Hw_init(void);
static void Kernel_init(void);
static void Printf_test(void);
static void Timer_test(void);

void main(void) {
      f8:	e92d4800 	push	{fp, lr}
      fc:	e28db004 	add	fp, sp, #4
     100:	e24dd008 	sub	sp, sp, #8
  Hw_init();
     104:	eb000016 	bl	164 <Hw_init>
  Kernel_init();
     108:	eb00001c 	bl	180 <Kernel_init>

  uint32_t i = 100;
     10c:	e3a03064 	mov	r3, #100	@ 0x64
     110:	e50b3008 	str	r3, [fp, #-8]
  while(i--) {
     114:	ea000001 	b	120 <main+0x28>
    Hal_uart_put_char('N');
     118:	e3a0004e 	mov	r0, #78	@ 0x4e
     11c:	eb0002ec 	bl	cd4 <Hal_uart_put_char>
  while(i--) {
     120:	e51b3008 	ldr	r3, [fp, #-8]
     124:	e2432001 	sub	r2, r3, #1
     128:	e50b2008 	str	r2, [fp, #-8]
     12c:	e3530000 	cmp	r3, #0
     130:	1afffff8 	bne	118 <main+0x20>
  }
  Hal_uart_put_char('\n');
     134:	e3a0000a 	mov	r0, #10
     138:	eb0002e5 	bl	cd4 <Hal_uart_put_char>

  putstr("Hello World!\n");
     13c:	e3000294 	movw	r0, #660	@ 0x294
     140:	e3400000 	movt	r0, #0
     144:	eb000366 	bl	ee4 <putstr>

  Printf_test();
     148:	eb000022 	bl	1d8 <Printf_test>

  Hal_interrupt_enable(UART_INTERRUPT0);
     14c:	e3a0002c 	mov	r0, #44	@ 0x2c
     150:	eb00019e 	bl	7d0 <Hal_interrupt_enable>
  Kernel_start();
     154:	eb0004c3 	bl	1468 <Kernel_start>
}
     158:	e320f000 	nop	{0}
     15c:	e24bd004 	sub	sp, fp, #4
     160:	e8bd8800 	pop	{fp, pc}

00000164 <Hw_init>:

static void Hw_init(void){
     164:	e92d4800 	push	{fp, lr}
     168:	e28db004 	add	fp, sp, #4
  Hal_interrupt_init();
     16c:	eb000170 	bl	734 <Hal_interrupt_init>
  Hal_uart_init();
     170:	eb0002b1 	bl	c3c <Hal_uart_init>
  Hal_timer_init();
     174:	eb00022c 	bl	a2c <Hal_timer_init>
}
     178:	e320f000 	nop	{0}
     17c:	e8bd8800 	pop	{fp, pc}

00000180 <Kernel_init>:

static void Kernel_init(void) {
     180:	e92d4800 	push	{fp, lr}
     184:	e28db004 	add	fp, sp, #4
  Kernel_task_init();
     188:	eb000714 	bl	1de0 <Kernel_task_init>
  Kernel_event_flag_init();
     18c:	eb000477 	bl	1370 <Kernel_event_flag_init>
  Kernel_msgQ_init();
     190:	eb000596 	bl	17f0 <Kernel_msgQ_init>
  Kernel_sem_init(1);
     194:	e3a00001 	mov	r0, #1
     198:	eb000690 	bl	1be0 <Kernel_sem_init>
  Kernel_mutex_init();
     19c:	eb0006d4 	bl	1cf4 <Kernel_mutex_init>
  add_task(User_task0, 0);
     1a0:	e3a01000 	mov	r1, #0
     1a4:	e3000400 	movw	r0, #1024	@ 0x400
     1a8:	e3400000 	movt	r0, #0
     1ac:	eb000063 	bl	340 <add_task>
  add_task(User_task1, 1);
     1b0:	e3a01001 	mov	r1, #1
     1b4:	e3000574 	movw	r0, #1396	@ 0x574
     1b8:	e3400000 	movt	r0, #0
     1bc:	eb00005f 	bl	340 <add_task>
  add_task(User_task2, 2);
     1c0:	e3a01002 	mov	r1, #2
     1c4:	e3000650 	movw	r0, #1616	@ 0x650
     1c8:	e3400000 	movt	r0, #0
     1cc:	eb00005b 	bl	340 <add_task>
}
     1d0:	e320f000 	nop	{0}
     1d4:	e8bd8800 	pop	{fp, pc}

000001d8 <Printf_test>:

static void Printf_test(void) {
     1d8:	e92d4800 	push	{fp, lr}
     1dc:	e28db004 	add	fp, sp, #4
     1e0:	e24dd010 	sub	sp, sp, #16
  char* str = "printf pointer test";
     1e4:	e30032a4 	movw	r3, #676	@ 0x2a4
     1e8:	e3403000 	movt	r3, #0
     1ec:	e50b3008 	str	r3, [fp, #-8]
  char* nullptr = 0;
     1f0:	e3a03000 	mov	r3, #0
     1f4:	e50b300c 	str	r3, [fp, #-12]
  uint32_t i = 5;
     1f8:	e3a03005 	mov	r3, #5
     1fc:	e50b3010 	str	r3, [fp, #-16]

  debug_printf("%s\n", "Hello printf");
     200:	e30012b8 	movw	r1, #696	@ 0x2b8
     204:	e3401000 	movt	r1, #0
     208:	e30002c8 	movw	r0, #712	@ 0x2c8
     20c:	e3400000 	movt	r0, #0
     210:	eb00034b 	bl	f44 <debug_printf>
  debug_printf("output string pointer: %s\n", str);
     214:	e51b1008 	ldr	r1, [fp, #-8]
     218:	e30002cc 	movw	r0, #716	@ 0x2cc
     21c:	e3400000 	movt	r0, #0
     220:	eb000347 	bl	f44 <debug_printf>
  debug_printf("%s is null pointer, %u number\n", nullptr, 10);
     224:	e3a0200a 	mov	r2, #10
     228:	e51b100c 	ldr	r1, [fp, #-12]
     22c:	e30002e8 	movw	r0, #744	@ 0x2e8
     230:	e3400000 	movt	r0, #0
     234:	eb000342 	bl	f44 <debug_printf>
  debug_printf("%u = 5\n", i);
     238:	e51b1010 	ldr	r1, [fp, #-16]
     23c:	e3000308 	movw	r0, #776	@ 0x308
     240:	e3400000 	movt	r0, #0
     244:	eb00033e 	bl	f44 <debug_printf>
  debug_printf("dec=%u hex=%x\n", 0xff, 0xff);
     248:	e3a020ff 	mov	r2, #255	@ 0xff
     24c:	e3a010ff 	mov	r1, #255	@ 0xff
     250:	e3000310 	movw	r0, #784	@ 0x310
     254:	e3400000 	movt	r0, #0
     258:	eb000339 	bl	f44 <debug_printf>
  debug_printf("print zero %u\n", 0);
     25c:	e3a01000 	mov	r1, #0
     260:	e3000320 	movw	r0, #800	@ 0x320
     264:	e3400000 	movt	r0, #0
     268:	eb000335 	bl	f44 <debug_printf>

  debug_printf("SYSCTRL0: %u\n", *((uint32_t*)0x10001000));
     26c:	e3a03a01 	mov	r3, #4096	@ 0x1000
     270:	e3413000 	movt	r3, #4096	@ 0x1000
     274:	e5933000 	ldr	r3, [r3]
     278:	e1a01003 	mov	r1, r3
     27c:	e3000330 	movw	r0, #816	@ 0x330
     280:	e3400000 	movt	r0, #0
     284:	eb00032e 	bl	f44 <debug_printf>
     288:	e320f000 	nop	{0}
     28c:	e24bd004 	sub	sp, fp, #4
     290:	e8bd8800 	pop	{fp, pc}
     294:	6c6c6548 	cfstr64vs	mvdx6, [ip], #-288	@ 0xfffffee0
     298:	6f57206f 	svcvs	0x0057206f
     29c:	21646c72 	smccs	18114	@ 0x46c2
     2a0:	0000000a 	andeq	r0, r0, sl
     2a4:	6e697270 	mcrvs	2, 3, r7, cr9, cr0, {3}
     2a8:	70206674 	eorvc	r6, r0, r4, ror r6
     2ac:	746e696f 	strbtvc	r6, [lr], #-2415	@ 0xfffff691
     2b0:	74207265 	strtvc	r7, [r0], #-613	@ 0xfffffd9b
     2b4:	00747365 	rsbseq	r7, r4, r5, ror #6
     2b8:	6c6c6548 	cfstr64vs	mvdx6, [ip], #-288	@ 0xfffffee0
     2bc:	7270206f 	rsbsvc	r2, r0, #111	@ 0x6f
     2c0:	66746e69 	ldrbtvs	r6, [r4], -r9, ror #28
     2c4:	00000000 	andeq	r0, r0, r0
     2c8:	000a7325 	andeq	r7, sl, r5, lsr #6
     2cc:	7074756f 	rsbsvc	r7, r4, pc, ror #10
     2d0:	73207475 			@ <UNDEFINED> instruction: 0x73207475
     2d4:	6e697274 	mcrvs	2, 3, r7, cr9, cr4, {3}
     2d8:	6f702067 	svcvs	0x00702067
     2dc:	65746e69 	ldrbvs	r6, [r4, #-3689]!	@ 0xfffff197
     2e0:	25203a72 	strcs	r3, [r0, #-2674]!	@ 0xfffff58e
     2e4:	00000a73 	andeq	r0, r0, r3, ror sl
     2e8:	69207325 	stmdbvs	r0!, {r0, r2, r5, r8, r9, ip, sp, lr}
     2ec:	756e2073 	strbvc	r2, [lr, #-115]!	@ 0xffffff8d
     2f0:	70206c6c 	eorvc	r6, r0, ip, ror #24
     2f4:	746e696f 	strbtvc	r6, [lr], #-2415	@ 0xfffff691
     2f8:	202c7265 	eorcs	r7, ip, r5, ror #4
     2fc:	6e207525 	cfsh64vs	mvdx7, mvdx0, #21
     300:	65626d75 	strbvs	r6, [r2, #-3445]!	@ 0xfffff28b
     304:	00000a72 	andeq	r0, r0, r2, ror sl
     308:	3d207525 	cfstr32cc	mvfx7, [r0, #-148]!	@ 0xffffff6c
     30c:	000a3520 	andeq	r3, sl, r0, lsr #10
     310:	3d636564 	cfstr64cc	mvdx6, [r3, #-400]!	@ 0xfffffe70
     314:	68207525 	stmdavs	r0!, {r0, r2, r5, r8, sl, ip, sp, lr}
     318:	253d7865 	ldrcs	r7, [sp, #-2149]!	@ 0xfffff79b
     31c:	00000a78 	andeq	r0, r0, r8, ror sl
     320:	6e697270 	mcrvs	2, 3, r7, cr9, cr0, {3}
     324:	657a2074 	ldrbvs	r2, [sl, #-116]!	@ 0xffffff8c
     328:	25206f72 	strcs	r6, [r0, #-3954]!	@ 0xfffff08e
     32c:	00000a75 	andeq	r0, r0, r5, ror sl
     330:	43535953 	cmpmi	r3, #1359872	@ 0x14c000
     334:	304c5254 	subcc	r5, ip, r4, asr r2
     338:	7525203a 	strvc	r2, [r5, #-58]!	@ 0xffffffc6
     33c:	0000000a 	andeq	r0, r0, sl

00000340 <add_task>:
#include "Tasks.h"
#include "stdio.h"
#include "stdlib.h"
#include "Kernel.h"

void add_task(KernelTaskFunc_t f, uint32_t t_id) {
     340:	e92d4800 	push	{fp, lr}
     344:	e28db004 	add	fp, sp, #4
     348:	e24dd010 	sub	sp, sp, #16
     34c:	e50b0010 	str	r0, [fp, #-16]
     350:	e50b1014 	str	r1, [fp, #-20]	@ 0xffffffec
  uint32_t taskId;

  taskId = Kernel_task_create(f);
     354:	e51b0010 	ldr	r0, [fp, #-16]
     358:	eb0006e5 	bl	1ef4 <Kernel_task_create>
     35c:	e50b0008 	str	r0, [fp, #-8]
  if (taskId == NOT_ENOUGH_TASK_NUM) {
     360:	e51b3008 	ldr	r3, [fp, #-8]
     364:	e3730001 	cmn	r3, #1
     368:	1a000003 	bne	37c <add_task+0x3c>
    debug_printf("Task%u creation fail\n", t_id);
     36c:	e51b1014 	ldr	r1, [fp, #-20]	@ 0xffffffec
     370:	e300068c 	movw	r0, #1676	@ 0x68c
     374:	e3400000 	movt	r0, #0
     378:	eb0002f1 	bl	f44 <debug_printf>
  }
}
     37c:	e320f000 	nop	{0}
     380:	e24bd004 	sub	sp, fp, #4
     384:	e8bd8800 	pop	{fp, pc}

00000388 <Test_critical_section>:

static uint32_t shared_value;
static void Test_critical_section(uint32_t p, uint32_t taskId) {
     388:	e92d4800 	push	{fp, lr}
     38c:	e28db004 	add	fp, sp, #4
     390:	e24dd008 	sub	sp, sp, #8
     394:	e50b0008 	str	r0, [fp, #-8]
     398:	e50b100c 	str	r1, [fp, #-12]
  //Kernel_lock_sem();
  Kernel_lock_mutex();
     39c:	eb0004f1 	bl	1768 <Kernel_lock_mutex>
  debug_printf("User Task #%u Send=%u\n", taskId, p);
     3a0:	e51b2008 	ldr	r2, [fp, #-8]
     3a4:	e51b100c 	ldr	r1, [fp, #-12]
     3a8:	e30006a4 	movw	r0, #1700	@ 0x6a4
     3ac:	e3400000 	movt	r0, #0
     3b0:	eb0002e3 	bl	f44 <debug_printf>
  shared_value = p;
     3b4:	e3023248 	movw	r3, #8776	@ 0x2248
     3b8:	e3403000 	movt	r3, #0
     3bc:	e51b2008 	ldr	r2, [fp, #-8]
     3c0:	e5832000 	str	r2, [r3]
  Kernel_yield();
     3c4:	eb00042c 	bl	147c <Kernel_yield>
  delay(1000);
     3c8:	e3a00ffa 	mov	r0, #1000	@ 0x3e8
     3cc:	eb0003d4 	bl	1324 <delay>
  debug_printf("User Task #%u Shared Value=%u\n", taskId, shared_value);
     3d0:	e3023248 	movw	r3, #8776	@ 0x2248
     3d4:	e3403000 	movt	r3, #0
     3d8:	e5933000 	ldr	r3, [r3]
     3dc:	e1a02003 	mov	r2, r3
     3e0:	e51b100c 	ldr	r1, [fp, #-12]
     3e4:	e30006bc 	movw	r0, #1724	@ 0x6bc
     3e8:	e3400000 	movt	r0, #0
     3ec:	eb0002d4 	bl	f44 <debug_printf>
  // Kernel_unlock_sem();
  Kernel_unlock_mutex();
     3f0:	eb0004ee 	bl	17b0 <Kernel_unlock_mutex>
}
     3f4:	e320f000 	nop	{0}
     3f8:	e24bd004 	sub	sp, fp, #4
     3fc:	e8bd8800 	pop	{fp, pc}

00000400 <User_task0>:

void User_task0(void) {
     400:	e92d4800 	push	{fp, lr}
     404:	e28db004 	add	fp, sp, #4
     408:	e24dd020 	sub	sp, sp, #32
  uint32_t local = 0;
     40c:	e3a03000 	mov	r3, #0
     410:	e50b300c 	str	r3, [fp, #-12]
  debug_printf("User Task #0 SP=0x%x\n", &local);
     414:	e24b300c 	sub	r3, fp, #12
     418:	e1a01003 	mov	r1, r3
     41c:	e30006dc 	movw	r0, #1756	@ 0x6dc
     420:	e3400000 	movt	r0, #0
     424:	eb0002c6 	bl	f44 <debug_printf>

  uint8_t cmdBuf[16];
  uint8_t cmdBufIdx = 0;
     428:	e3a03000 	mov	r3, #0
     42c:	e54b301d 	strb	r3, [fp, #-29]	@ 0xffffffe3
  uint8_t uartch = 0;
     430:	e3a03000 	mov	r3, #0
     434:	e54b301e 	strb	r3, [fp, #-30]	@ 0xffffffe2

  while(true) {
    KernelEventFlag_t handle_event = Kernel_wait_events(KernelEventFlag_UartIn | KernelEventFlag_CmdOut);
     438:	e3a00005 	mov	r0, #5
     43c:	eb000435 	bl	1518 <Kernel_wait_events>
     440:	e50b0008 	str	r0, [fp, #-8]
    switch(handle_event) {
     444:	e51b3008 	ldr	r3, [fp, #-8]
     448:	e3530001 	cmp	r3, #1
     44c:	0a000003 	beq	460 <User_task0+0x60>
     450:	e51b3008 	ldr	r3, [fp, #-8]
     454:	e3530004 	cmp	r3, #4
     458:	0a00003f 	beq	55c <User_task0+0x15c>
     45c:	ea000042 	b	56c <User_task0+0x16c>
    case KernelEventFlag_UartIn:
      Kernel_recv_msg(KernelMsgQ_Task0, &uartch, 1);
     460:	e24b301e 	sub	r3, fp, #30
     464:	e3a02001 	mov	r2, #1
     468:	e1a01003 	mov	r1, r3
     46c:	e3a00000 	mov	r0, #0
     470:	eb000485 	bl	168c <Kernel_recv_msg>

      if (uartch == '\r') {
     474:	e55b301e 	ldrb	r3, [fp, #-30]	@ 0xffffffe2
     478:	e353000d 	cmp	r3, #13
     47c:	1a000028 	bne	524 <User_task0+0x124>
        cmdBuf[cmdBufIdx] = '\0';
     480:	e55b301d 	ldrb	r3, [fp, #-29]	@ 0xffffffe3
     484:	e2433004 	sub	r3, r3, #4
     488:	e083300b 	add	r3, r3, fp
     48c:	e3a02000 	mov	r2, #0
     490:	e5432018 	strb	r2, [r3, #-24]	@ 0xffffffe8
        
        while(true) {
          if(!Kernel_send_msg(KernelMsgQ_Task1, &cmdBufIdx, 1)) {
     494:	e24b301d 	sub	r3, fp, #29
     498:	e3a02001 	mov	r2, #1
     49c:	e1a01003 	mov	r1, r3
     4a0:	e3a00001 	mov	r0, #1
     4a4:	eb000442 	bl	15b4 <Kernel_send_msg>
     4a8:	e1a03000 	mov	r3, r0
     4ac:	e2233001 	eor	r3, r3, #1
     4b0:	e6ef3073 	uxtb	r3, r3
     4b4:	e3530000 	cmp	r3, #0
     4b8:	0a000001 	beq	4c4 <User_task0+0xc4>
            Kernel_yield();
     4bc:	eb0003ee 	bl	147c <Kernel_yield>
     4c0:	eafffff3 	b	494 <User_task0+0x94>
          }
          else if(!Kernel_send_msg(KernelMsgQ_Task1, cmdBuf, cmdBufIdx)) {
     4c4:	e55b301d 	ldrb	r3, [fp, #-29]	@ 0xffffffe3
     4c8:	e1a02003 	mov	r2, r3
     4cc:	e24b301c 	sub	r3, fp, #28
     4d0:	e1a01003 	mov	r1, r3
     4d4:	e3a00001 	mov	r0, #1
     4d8:	eb000435 	bl	15b4 <Kernel_send_msg>
     4dc:	e1a03000 	mov	r3, r0
     4e0:	e2233001 	eor	r3, r3, #1
     4e4:	e6ef3073 	uxtb	r3, r3
     4e8:	e3530000 	cmp	r3, #0
     4ec:	0a000006 	beq	50c <User_task0+0x10c>
            uint8_t rollback;
            Kernel_recv_msg(KernelMsgQ_Task1, &rollback, 1);
     4f0:	e24b301f 	sub	r3, fp, #31
     4f4:	e3a02001 	mov	r2, #1
     4f8:	e1a01003 	mov	r1, r3
     4fc:	e3a00001 	mov	r0, #1
     500:	eb000461 	bl	168c <Kernel_recv_msg>
            Kernel_yield();
     504:	eb0003dc 	bl	147c <Kernel_yield>
          if(!Kernel_send_msg(KernelMsgQ_Task1, &cmdBufIdx, 1)) {
     508:	eaffffe1 	b	494 <User_task0+0x94>
          }
          else {
            break;
     50c:	e320f000 	nop	{0}
          }
        }

        Kernel_send_events(KernelEventFlag_CmdIn);
     510:	e3a00002 	mov	r0, #2
     514:	eb0003dd 	bl	1490 <Kernel_send_events>
        cmdBufIdx = 0;
     518:	e3a03000 	mov	r3, #0
     51c:	e54b301d 	strb	r3, [fp, #-29]	@ 0xffffffe3
      }
      else {
        cmdBuf[cmdBufIdx] = uartch;
        cmdBufIdx = (cmdBufIdx + 1) % 16;
      }
      break;
     520:	ea000011 	b	56c <User_task0+0x16c>
        cmdBuf[cmdBufIdx] = uartch;
     524:	e55b301d 	ldrb	r3, [fp, #-29]	@ 0xffffffe3
     528:	e55b201e 	ldrb	r2, [fp, #-30]	@ 0xffffffe2
     52c:	e2433004 	sub	r3, r3, #4
     530:	e083300b 	add	r3, r3, fp
     534:	e5432018 	strb	r2, [r3, #-24]	@ 0xffffffe8
        cmdBufIdx = (cmdBufIdx + 1) % 16;
     538:	e55b301d 	ldrb	r3, [fp, #-29]	@ 0xffffffe3
     53c:	e2833001 	add	r3, r3, #1
     540:	e2732000 	rsbs	r2, r3, #0
     544:	e203300f 	and	r3, r3, #15
     548:	e202200f 	and	r2, r2, #15
     54c:	52623000 	rsbpl	r3, r2, #0
     550:	e6ef3073 	uxtb	r3, r3
     554:	e54b301d 	strb	r3, [fp, #-29]	@ 0xffffffe3
      break;
     558:	ea000003 	b	56c <User_task0+0x16c>
    case KernelEventFlag_CmdOut:
      Test_critical_section(5, 0);
     55c:	e3a01000 	mov	r1, #0
     560:	e3a00005 	mov	r0, #5
     564:	ebffff87 	bl	388 <Test_critical_section>
      break;
     568:	e320f000 	nop	{0}
    }
    Kernel_yield();
     56c:	eb0003c2 	bl	147c <Kernel_yield>
  while(true) {
     570:	eaffffb0 	b	438 <User_task0+0x38>

00000574 <User_task1>:
  }
}
void User_task1(void) {
     574:	e92d4800 	push	{fp, lr}
     578:	e28db004 	add	fp, sp, #4
     57c:	e24dd020 	sub	sp, sp, #32
  uint32_t local = 0;
     580:	e3a03000 	mov	r3, #0
     584:	e50b300c 	str	r3, [fp, #-12]
  debug_printf("User Task #1 SP=0x%x\n", &local);
     588:	e24b300c 	sub	r3, fp, #12
     58c:	e1a01003 	mov	r1, r3
     590:	e30006f4 	movw	r0, #1780	@ 0x6f4
     594:	e3400000 	movt	r0, #0
     598:	eb000269 	bl	f44 <debug_printf>

  uint8_t cmdlen = 0;
     59c:	e3a03000 	mov	r3, #0
     5a0:	e54b300d 	strb	r3, [fp, #-13]
  uint8_t cmd[16] = {0, };
     5a4:	e3a03000 	mov	r3, #0
     5a8:	e50b3020 	str	r3, [fp, #-32]	@ 0xffffffe0
     5ac:	e24b301c 	sub	r3, fp, #28
     5b0:	e3a02000 	mov	r2, #0
     5b4:	e5832000 	str	r2, [r3]
     5b8:	e5832004 	str	r2, [r3, #4]
     5bc:	e5832008 	str	r2, [r3, #8]

  while(true) {
    KernelEventFlag_t handle_event = Kernel_wait_events(KernelEventFlag_CmdIn | KernelEventFlag_Unlock);
     5c0:	e3a0000a 	mov	r0, #10
     5c4:	eb0003d3 	bl	1518 <Kernel_wait_events>
     5c8:	e50b0008 	str	r0, [fp, #-8]
    switch(handle_event) {
     5cc:	e51b3008 	ldr	r3, [fp, #-8]
     5d0:	e3530002 	cmp	r3, #2
     5d4:	0a000003 	beq	5e8 <User_task1+0x74>
     5d8:	e51b3008 	ldr	r3, [fp, #-8]
     5dc:	e3530008 	cmp	r3, #8
     5e0:	0a000016 	beq	640 <User_task1+0xcc>
     5e4:	ea000017 	b	648 <User_task1+0xd4>
    case KernelEventFlag_CmdIn:
      Kernel_recv_msg(KernelMsgQ_Task1, &cmdlen, 1);
     5e8:	e24b300d 	sub	r3, fp, #13
     5ec:	e3a02001 	mov	r2, #1
     5f0:	e1a01003 	mov	r1, r3
     5f4:	e3a00001 	mov	r0, #1
     5f8:	eb000423 	bl	168c <Kernel_recv_msg>
      Kernel_recv_msg(KernelMsgQ_Task1, cmd, cmdlen);
     5fc:	e55b300d 	ldrb	r3, [fp, #-13]
     600:	e1a02003 	mov	r2, r3
     604:	e24b3020 	sub	r3, fp, #32
     608:	e1a01003 	mov	r1, r3
     60c:	e3a00001 	mov	r0, #1
     610:	eb00041d 	bl	168c <Kernel_recv_msg>
      cmd[cmdlen] = 0;
     614:	e55b300d 	ldrb	r3, [fp, #-13]
     618:	e2433004 	sub	r3, r3, #4
     61c:	e083300b 	add	r3, r3, fp
     620:	e3a02000 	mov	r2, #0
     624:	e543201c 	strb	r2, [r3, #-28]	@ 0xffffffe4
      debug_printf("\nRecv Cmd: %s\n", cmd);
     628:	e24b3020 	sub	r3, fp, #32
     62c:	e1a01003 	mov	r1, r3
     630:	e300070c 	movw	r0, #1804	@ 0x70c
     634:	e3400000 	movt	r0, #0
     638:	eb000241 	bl	f44 <debug_printf>
      break;
     63c:	ea000001 	b	648 <User_task1+0xd4>
    case KernelEventFlag_Unlock:
      Kernel_unlock_sem();
     640:	eb000443 	bl	1754 <Kernel_unlock_sem>
      break;
     644:	e320f000 	nop	{0}
    }
    Kernel_yield();
     648:	eb00038b 	bl	147c <Kernel_yield>
  while(true) {
     64c:	eaffffdb 	b	5c0 <User_task1+0x4c>

00000650 <User_task2>:
  }
}
void User_task2(void) {
     650:	e92d4800 	push	{fp, lr}
     654:	e28db004 	add	fp, sp, #4
     658:	e24dd008 	sub	sp, sp, #8
  uint32_t local = 0;
     65c:	e3a03000 	mov	r3, #0
     660:	e50b3008 	str	r3, [fp, #-8]
  debug_printf("User Task #2 SP=0x%x\n", &local);
     664:	e24b3008 	sub	r3, fp, #8
     668:	e1a01003 	mov	r1, r3
     66c:	e300071c 	movw	r0, #1820	@ 0x71c
     670:	e3400000 	movt	r0, #0
     674:	eb000232 	bl	f44 <debug_printf>
  while(true) {
    Test_critical_section(3, 2);
     678:	e3a01002 	mov	r1, #2
     67c:	e3a00003 	mov	r0, #3
     680:	ebffff40 	bl	388 <Test_critical_section>
    Kernel_yield();
     684:	eb00037c 	bl	147c <Kernel_yield>
    Test_critical_section(3, 2);
     688:	eafffffa 	b	678 <User_task2+0x28>
     68c:	6b736154 	blvs	1cd8be4 <cpsr_cp+0x1cd595c>
     690:	63207525 			@ <UNDEFINED> instruction: 0x63207525
     694:	74616572 	strbtvc	r6, [r1], #-1394	@ 0xfffffa8e
     698:	206e6f69 	rsbcs	r6, lr, r9, ror #30
     69c:	6c696166 	stfvse	f6, [r9], #-408	@ 0xfffffe68
     6a0:	0000000a 	andeq	r0, r0, sl
     6a4:	72657355 	rsbvc	r7, r5, #1409286145	@ 0x54000001
     6a8:	73615420 	cmnvc	r1, #32, 8	@ 0x20000000
     6ac:	2523206b 	strcs	r2, [r3, #-107]!	@ 0xffffff95
     6b0:	65532075 	ldrbvs	r2, [r3, #-117]	@ 0xffffff8b
     6b4:	253d646e 	ldrcs	r6, [sp, #-1134]!	@ 0xfffffb92
     6b8:	00000a75 	andeq	r0, r0, r5, ror sl
     6bc:	72657355 	rsbvc	r7, r5, #1409286145	@ 0x54000001
     6c0:	73615420 	cmnvc	r1, #32, 8	@ 0x20000000
     6c4:	2523206b 	strcs	r2, [r3, #-107]!	@ 0xffffff95
     6c8:	68532075 	ldmdavs	r3, {r0, r2, r4, r5, r6, sp}^
     6cc:	64657261 	strbtvs	r7, [r5], #-609	@ 0xfffffd9f
     6d0:	6c615620 	stclvs	6, cr5, [r1], #-128	@ 0xffffff80
     6d4:	253d6575 	ldrcs	r6, [sp, #-1397]!	@ 0xfffffa8b
     6d8:	00000a75 	andeq	r0, r0, r5, ror sl
     6dc:	72657355 	rsbvc	r7, r5, #1409286145	@ 0x54000001
     6e0:	73615420 	cmnvc	r1, #32, 8	@ 0x20000000
     6e4:	3023206b 	eorcc	r2, r3, fp, rrx
     6e8:	3d505320 	ldclcc	3, cr5, [r0, #-128]	@ 0xffffff80
     6ec:	78257830 	stmdavc	r5!, {r4, r5, fp, ip, sp, lr}
     6f0:	0000000a 	andeq	r0, r0, sl
     6f4:	72657355 	rsbvc	r7, r5, #1409286145	@ 0x54000001
     6f8:	73615420 	cmnvc	r1, #32, 8	@ 0x20000000
     6fc:	3123206b 			@ <UNDEFINED> instruction: 0x3123206b
     700:	3d505320 	ldclcc	3, cr5, [r0, #-128]	@ 0xffffff80
     704:	78257830 	stmdavc	r5!, {r4, r5, fp, ip, sp, lr}
     708:	0000000a 	andeq	r0, r0, sl
     70c:	6365520a 	cmnvs	r5, #-1610612736	@ 0xa0000000
     710:	6d432076 	stclvs	0, cr2, [r3, #-472]	@ 0xfffffe28
     714:	25203a64 	strcs	r3, [r0, #-2660]!	@ 0xfffff59c
     718:	00000a73 	andeq	r0, r0, r3, ror sl
     71c:	72657355 	rsbvc	r7, r5, #1409286145	@ 0x54000001
     720:	73615420 	cmnvc	r1, #32, 8	@ 0x20000000
     724:	3223206b 	eorcc	r2, r3, #107	@ 0x6b
     728:	3d505320 	ldclcc	3, cr5, [r0, #-128]	@ 0xffffff80
     72c:	78257830 	stmdavc	r5!, {r4, r5, fp, ip, sp, lr}
     730:	0000000a 	andeq	r0, r0, sl

00000734 <Hal_interrupt_init>:
extern volatile GicCput_t* GicCpu;
extern volatile GicDist_t* GicDist;

static InterHdlr_fptr sHandlers[INTERRUPT_HANDLER_NUM];

void Hal_interrupt_init(void) {
     734:	e92d4800 	push	{fp, lr}
     738:	e28db004 	add	fp, sp, #4
     73c:	e24dd008 	sub	sp, sp, #8
  GicCpu->cpucontrol.bits.Enable = 1;
     740:	e302323c 	movw	r3, #8764	@ 0x223c
     744:	e3403000 	movt	r3, #0
     748:	e5932000 	ldr	r2, [r3]
     74c:	e5923000 	ldr	r3, [r2]
     750:	e3833001 	orr	r3, r3, #1
     754:	e5823000 	str	r3, [r2]
  GicCpu->prioritymask.bits.Prioritymask = GIC_PRIORITY_MASK_NONE;
     758:	e302323c 	movw	r3, #8764	@ 0x223c
     75c:	e3403000 	movt	r3, #0
     760:	e5932000 	ldr	r2, [r3]
     764:	e5923004 	ldr	r3, [r2, #4]
     768:	e38330f0 	orr	r3, r3, #240	@ 0xf0
     76c:	e5823004 	str	r3, [r2, #4]
  GicDist->distributorctrl.bits.Enable = 1;
     770:	e3023240 	movw	r3, #8768	@ 0x2240
     774:	e3403000 	movt	r3, #0
     778:	e5932000 	ldr	r2, [r3]
     77c:	e5923000 	ldr	r3, [r2]
     780:	e3833001 	orr	r3, r3, #1
     784:	e5823000 	str	r3, [r2]

  for (uint32_t i = 0; i < INTERRUPT_HANDLER_NUM; ++i) {
     788:	e3a03000 	mov	r3, #0
     78c:	e50b3008 	str	r3, [fp, #-8]
     790:	ea000007 	b	7b4 <Hal_interrupt_init+0x80>
    sHandlers[i] = NULL;
     794:	e302324c 	movw	r3, #8780	@ 0x224c
     798:	e3403000 	movt	r3, #0
     79c:	e51b2008 	ldr	r2, [fp, #-8]
     7a0:	e3a01000 	mov	r1, #0
     7a4:	e7831102 	str	r1, [r3, r2, lsl #2]
  for (uint32_t i = 0; i < INTERRUPT_HANDLER_NUM; ++i) {
     7a8:	e51b3008 	ldr	r3, [fp, #-8]
     7ac:	e2833001 	add	r3, r3, #1
     7b0:	e50b3008 	str	r3, [fp, #-8]
     7b4:	e51b3008 	ldr	r3, [fp, #-8]
     7b8:	e35300fe 	cmp	r3, #254	@ 0xfe
     7bc:	9afffff4 	bls	794 <Hal_interrupt_init+0x60>
  }

  enable_irq();
     7c0:	eb00019b 	bl	e34 <enable_irq>
}
     7c4:	e320f000 	nop	{0}
     7c8:	e24bd004 	sub	sp, fp, #4
     7cc:	e8bd8800 	pop	{fp, pc}

000007d0 <Hal_interrupt_enable>:
void Hal_interrupt_enable(uint32_t interrupt_num) {
     7d0:	e52db004 	push	{fp}		@ (str fp, [sp, #-4]!)
     7d4:	e28db000 	add	fp, sp, #0
     7d8:	e24dd014 	sub	sp, sp, #20
     7dc:	e50b0010 	str	r0, [fp, #-16]
  if ((interrupt_num < GIC_IRQ_START) || (GIC_IRQ_END < interrupt_num)) {
     7e0:	e51b3010 	ldr	r3, [fp, #-16]
     7e4:	e353001f 	cmp	r3, #31
     7e8:	9a000027 	bls	88c <Hal_interrupt_enable+0xbc>
     7ec:	e51b3010 	ldr	r3, [fp, #-16]
     7f0:	e353005f 	cmp	r3, #95	@ 0x5f
     7f4:	8a000024 	bhi	88c <Hal_interrupt_enable+0xbc>
    return;
  }

  uint32_t bit_num = interrupt_num - GIC_IRQ_START;
     7f8:	e51b3010 	ldr	r3, [fp, #-16]
     7fc:	e2433020 	sub	r3, r3, #32
     800:	e50b3008 	str	r3, [fp, #-8]

  if (bit_num < GIC_IRQ_START) {
     804:	e51b3008 	ldr	r3, [fp, #-8]
     808:	e353001f 	cmp	r3, #31
     80c:	8a00000d 	bhi	848 <Hal_interrupt_enable+0x78>
    SET_BIT(GicDist->setenable1, bit_num);
     810:	e3023240 	movw	r3, #8768	@ 0x2240
     814:	e3403000 	movt	r3, #0
     818:	e5933000 	ldr	r3, [r3]
     81c:	e5932104 	ldr	r2, [r3, #260]	@ 0x104
     820:	e3a01001 	mov	r1, #1
     824:	e51b3008 	ldr	r3, [fp, #-8]
     828:	e1a03311 	lsl	r3, r1, r3
     82c:	e1a01003 	mov	r1, r3
     830:	e3023240 	movw	r3, #8768	@ 0x2240
     834:	e3403000 	movt	r3, #0
     838:	e5933000 	ldr	r3, [r3]
     83c:	e1822001 	orr	r2, r2, r1
     840:	e5832104 	str	r2, [r3, #260]	@ 0x104
     844:	ea000011 	b	890 <Hal_interrupt_enable+0xc0>
  }
  else {
    bit_num -= GIC_IRQ_START;
     848:	e51b3008 	ldr	r3, [fp, #-8]
     84c:	e2433020 	sub	r3, r3, #32
     850:	e50b3008 	str	r3, [fp, #-8]
    SET_BIT(GicDist->setenable2, bit_num);
     854:	e3023240 	movw	r3, #8768	@ 0x2240
     858:	e3403000 	movt	r3, #0
     85c:	e5933000 	ldr	r3, [r3]
     860:	e5932108 	ldr	r2, [r3, #264]	@ 0x108
     864:	e3a01001 	mov	r1, #1
     868:	e51b3008 	ldr	r3, [fp, #-8]
     86c:	e1a03311 	lsl	r3, r1, r3
     870:	e1a01003 	mov	r1, r3
     874:	e3023240 	movw	r3, #8768	@ 0x2240
     878:	e3403000 	movt	r3, #0
     87c:	e5933000 	ldr	r3, [r3]
     880:	e1822001 	orr	r2, r2, r1
     884:	e5832108 	str	r2, [r3, #264]	@ 0x108
     888:	ea000000 	b	890 <Hal_interrupt_enable+0xc0>
    return;
     88c:	e320f000 	nop	{0}
  }
}
     890:	e28bd000 	add	sp, fp, #0
     894:	e49db004 	pop	{fp}		@ (ldr fp, [sp], #4)
     898:	e12fff1e 	bx	lr

0000089c <Hal_interrupt_disable>:
void Hal_interrupt_disable(uint32_t interrupt_num) {
     89c:	e52db004 	push	{fp}		@ (str fp, [sp, #-4]!)
     8a0:	e28db000 	add	fp, sp, #0
     8a4:	e24dd014 	sub	sp, sp, #20
     8a8:	e50b0010 	str	r0, [fp, #-16]
  if ((interrupt_num < GIC_IRQ_START) || (GIC_IRQ_END < interrupt_num)) {
     8ac:	e51b3010 	ldr	r3, [fp, #-16]
     8b0:	e353001f 	cmp	r3, #31
     8b4:	9a000029 	bls	960 <Hal_interrupt_disable+0xc4>
     8b8:	e51b3010 	ldr	r3, [fp, #-16]
     8bc:	e353005f 	cmp	r3, #95	@ 0x5f
     8c0:	8a000026 	bhi	960 <Hal_interrupt_disable+0xc4>
    return;
  }

  uint32_t bit_num = interrupt_num - GIC_IRQ_START;
     8c4:	e51b3010 	ldr	r3, [fp, #-16]
     8c8:	e2433020 	sub	r3, r3, #32
     8cc:	e50b3008 	str	r3, [fp, #-8]

  if (bit_num < GIC_IRQ_START) {
     8d0:	e51b3008 	ldr	r3, [fp, #-8]
     8d4:	e353001f 	cmp	r3, #31
     8d8:	8a00000e 	bhi	918 <Hal_interrupt_disable+0x7c>
    CLR_BIT(GicDist->setenable1, bit_num);
     8dc:	e3023240 	movw	r3, #8768	@ 0x2240
     8e0:	e3403000 	movt	r3, #0
     8e4:	e5933000 	ldr	r3, [r3]
     8e8:	e5932104 	ldr	r2, [r3, #260]	@ 0x104
     8ec:	e3a01001 	mov	r1, #1
     8f0:	e51b3008 	ldr	r3, [fp, #-8]
     8f4:	e1a03311 	lsl	r3, r1, r3
     8f8:	e1e03003 	mvn	r3, r3
     8fc:	e1a01003 	mov	r1, r3
     900:	e3023240 	movw	r3, #8768	@ 0x2240
     904:	e3403000 	movt	r3, #0
     908:	e5933000 	ldr	r3, [r3]
     90c:	e0022001 	and	r2, r2, r1
     910:	e5832104 	str	r2, [r3, #260]	@ 0x104
     914:	ea000012 	b	964 <Hal_interrupt_disable+0xc8>
  }
  else {
    bit_num -= GIC_IRQ_START;
     918:	e51b3008 	ldr	r3, [fp, #-8]
     91c:	e2433020 	sub	r3, r3, #32
     920:	e50b3008 	str	r3, [fp, #-8]
    CLR_BIT(GicDist->setenable2, bit_num);
     924:	e3023240 	movw	r3, #8768	@ 0x2240
     928:	e3403000 	movt	r3, #0
     92c:	e5933000 	ldr	r3, [r3]
     930:	e5932108 	ldr	r2, [r3, #264]	@ 0x108
     934:	e3a01001 	mov	r1, #1
     938:	e51b3008 	ldr	r3, [fp, #-8]
     93c:	e1a03311 	lsl	r3, r1, r3
     940:	e1e03003 	mvn	r3, r3
     944:	e1a01003 	mov	r1, r3
     948:	e3023240 	movw	r3, #8768	@ 0x2240
     94c:	e3403000 	movt	r3, #0
     950:	e5933000 	ldr	r3, [r3]
     954:	e0022001 	and	r2, r2, r1
     958:	e5832108 	str	r2, [r3, #264]	@ 0x108
     95c:	ea000000 	b	964 <Hal_interrupt_disable+0xc8>
    return;
     960:	e320f000 	nop	{0}
  }
}
     964:	e28bd000 	add	sp, fp, #0
     968:	e49db004 	pop	{fp}		@ (ldr fp, [sp], #4)
     96c:	e12fff1e 	bx	lr

00000970 <Hal_interrupt_register_handler>:
void Hal_interrupt_register_handler(InterHdlr_fptr handler, uint32_t interrupt_num) {
     970:	e52db004 	push	{fp}		@ (str fp, [sp, #-4]!)
     974:	e28db000 	add	fp, sp, #0
     978:	e24dd00c 	sub	sp, sp, #12
     97c:	e50b0008 	str	r0, [fp, #-8]
     980:	e50b100c 	str	r1, [fp, #-12]
  sHandlers[interrupt_num] = handler;
     984:	e302324c 	movw	r3, #8780	@ 0x224c
     988:	e3403000 	movt	r3, #0
     98c:	e51b200c 	ldr	r2, [fp, #-12]
     990:	e51b1008 	ldr	r1, [fp, #-8]
     994:	e7831102 	str	r1, [r3, r2, lsl #2]
}
     998:	e320f000 	nop	{0}
     99c:	e28bd000 	add	sp, fp, #0
     9a0:	e49db004 	pop	{fp}		@ (ldr fp, [sp], #4)
     9a4:	e12fff1e 	bx	lr

000009a8 <Hal_interrupt_run_handler>:
void Hal_interrupt_run_handler(void) {
     9a8:	e92d4800 	push	{fp, lr}
     9ac:	e28db004 	add	fp, sp, #4
     9b0:	e24dd008 	sub	sp, sp, #8
  uint32_t interrupt_num = GicCpu->interruptack.bits.InterruptID;
     9b4:	e302323c 	movw	r3, #8764	@ 0x223c
     9b8:	e3403000 	movt	r3, #0
     9bc:	e5933000 	ldr	r3, [r3]
     9c0:	e593300c 	ldr	r3, [r3, #12]
     9c4:	e7e93053 	ubfx	r3, r3, #0, #10
     9c8:	e6ff3073 	uxth	r3, r3
     9cc:	e50b3008 	str	r3, [fp, #-8]

  if (sHandlers[interrupt_num] != NULL) {
     9d0:	e302324c 	movw	r3, #8780	@ 0x224c
     9d4:	e3403000 	movt	r3, #0
     9d8:	e51b2008 	ldr	r2, [fp, #-8]
     9dc:	e7933102 	ldr	r3, [r3, r2, lsl #2]
     9e0:	e3530000 	cmp	r3, #0
     9e4:	0a000004 	beq	9fc <Hal_interrupt_run_handler+0x54>
    sHandlers[interrupt_num]();
     9e8:	e302324c 	movw	r3, #8780	@ 0x224c
     9ec:	e3403000 	movt	r3, #0
     9f0:	e51b2008 	ldr	r2, [fp, #-8]
     9f4:	e7933102 	ldr	r3, [r3, r2, lsl #2]
     9f8:	e12fff33 	blx	r3
  }

  GicCpu->endofinterrupt.bits.InterruptID = interrupt_num;
     9fc:	e302323c 	movw	r3, #8764	@ 0x223c
     a00:	e3403000 	movt	r3, #0
     a04:	e5932000 	ldr	r2, [r3]
     a08:	e51b3008 	ldr	r3, [fp, #-8]
     a0c:	e7e93053 	ubfx	r3, r3, #0, #10
     a10:	e6ff1073 	uxth	r1, r3
     a14:	e5923010 	ldr	r3, [r2, #16]
     a18:	e7c93011 	bfi	r3, r1, #0, #10
     a1c:	e5823010 	str	r3, [r2, #16]
     a20:	e320f000 	nop	{0}
     a24:	e24bd004 	sub	sp, fp, #4
     a28:	e8bd8800 	pop	{fp, pc}

00000a2c <Hal_timer_init>:

static void interrupt_handler(void);

static uint32_t internal_1ms_counter;

void Hal_timer_init(void) {
     a2c:	e92d4800 	push	{fp, lr}
     a30:	e28db004 	add	fp, sp, #4
     a34:	e24dd008 	sub	sp, sp, #8
  // interface reset
  Timer->timerxcontrol.bits.TimerEn = 0;
     a38:	e3023244 	movw	r3, #8772	@ 0x2244
     a3c:	e3403000 	movt	r3, #0
     a40:	e5932000 	ldr	r2, [r3]
     a44:	e5923008 	ldr	r3, [r2, #8]
     a48:	e7c7339f 	bfc	r3, #7, #1
     a4c:	e5823008 	str	r3, [r2, #8]
  Timer->timerxcontrol.bits.TimerMode = 0;
     a50:	e3023244 	movw	r3, #8772	@ 0x2244
     a54:	e3403000 	movt	r3, #0
     a58:	e5932000 	ldr	r2, [r3]
     a5c:	e5923008 	ldr	r3, [r2, #8]
     a60:	e7c6331f 	bfc	r3, #6, #1
     a64:	e5823008 	str	r3, [r2, #8]
  Timer->timerxcontrol.bits.OneShot = 0;
     a68:	e3023244 	movw	r3, #8772	@ 0x2244
     a6c:	e3403000 	movt	r3, #0
     a70:	e5932000 	ldr	r2, [r3]
     a74:	e5923008 	ldr	r3, [r2, #8]
     a78:	e7c0301f 	bfc	r3, #0, #1
     a7c:	e5823008 	str	r3, [r2, #8]
  Timer->timerxcontrol.bits.TimerSize = 0;
     a80:	e3023244 	movw	r3, #8772	@ 0x2244
     a84:	e3403000 	movt	r3, #0
     a88:	e5932000 	ldr	r2, [r3]
     a8c:	e5923008 	ldr	r3, [r2, #8]
     a90:	e7c1309f 	bfc	r3, #1, #1
     a94:	e5823008 	str	r3, [r2, #8]
  Timer->timerxcontrol.bits.TimerPre = 0;
     a98:	e3023244 	movw	r3, #8772	@ 0x2244
     a9c:	e3403000 	movt	r3, #0
     aa0:	e5932000 	ldr	r2, [r3]
     aa4:	e5923008 	ldr	r3, [r2, #8]
     aa8:	e7c3311f 	bfc	r3, #2, #2
     aac:	e5823008 	str	r3, [r2, #8]
  Timer->timerxcontrol.bits.IntEnable = 1;
     ab0:	e3023244 	movw	r3, #8772	@ 0x2244
     ab4:	e3403000 	movt	r3, #0
     ab8:	e5932000 	ldr	r2, [r3]
     abc:	e5923008 	ldr	r3, [r2, #8]
     ac0:	e3833020 	orr	r3, r3, #32
     ac4:	e5823008 	str	r3, [r2, #8]
  Timer->timerxload = 0;
     ac8:	e3023244 	movw	r3, #8772	@ 0x2244
     acc:	e3403000 	movt	r3, #0
     ad0:	e5933000 	ldr	r3, [r3]
     ad4:	e3a02000 	mov	r2, #0
     ad8:	e5832000 	str	r2, [r3]
  Timer->timerxvalue = 0xFFFFFFFF;
     adc:	e3023244 	movw	r3, #8772	@ 0x2244
     ae0:	e3403000 	movt	r3, #0
     ae4:	e5933000 	ldr	r3, [r3]
     ae8:	e3e02000 	mvn	r2, #0
     aec:	e5832004 	str	r2, [r3, #4]

  // set periodic mode
  Timer->timerxcontrol.bits.TimerMode = TIMER_PERIOIC;
     af0:	e3023244 	movw	r3, #8772	@ 0x2244
     af4:	e3403000 	movt	r3, #0
     af8:	e5932000 	ldr	r2, [r3]
     afc:	e5923008 	ldr	r3, [r2, #8]
     b00:	e3833040 	orr	r3, r3, #64	@ 0x40
     b04:	e5823008 	str	r3, [r2, #8]
  Timer->timerxcontrol.bits.TimerSize = TIMER_32BIT_COUNTER;
     b08:	e3023244 	movw	r3, #8772	@ 0x2244
     b0c:	e3403000 	movt	r3, #0
     b10:	e5932000 	ldr	r2, [r3]
     b14:	e5923008 	ldr	r3, [r2, #8]
     b18:	e3833002 	orr	r3, r3, #2
     b1c:	e5823008 	str	r3, [r2, #8]
  Timer->timerxcontrol.bits.OneShot = 0;
     b20:	e3023244 	movw	r3, #8772	@ 0x2244
     b24:	e3403000 	movt	r3, #0
     b28:	e5932000 	ldr	r2, [r3]
     b2c:	e5923008 	ldr	r3, [r2, #8]
     b30:	e7c0301f 	bfc	r3, #0, #1
     b34:	e5823008 	str	r3, [r2, #8]
  Timer->timerxcontrol.bits.TimerPre = 0;
     b38:	e3023244 	movw	r3, #8772	@ 0x2244
     b3c:	e3403000 	movt	r3, #0
     b40:	e5932000 	ldr	r2, [r3]
     b44:	e5923008 	ldr	r3, [r2, #8]
     b48:	e7c3311f 	bfc	r3, #2, #2
     b4c:	e5823008 	str	r3, [r2, #8]
  Timer->timerxcontrol.bits.IntEnable = 1;
     b50:	e3023244 	movw	r3, #8772	@ 0x2244
     b54:	e3403000 	movt	r3, #0
     b58:	e5932000 	ldr	r2, [r3]
     b5c:	e5923008 	ldr	r3, [r2, #8]
     b60:	e3833020 	orr	r3, r3, #32
     b64:	e5823008 	str	r3, [r2, #8]

  uint32_t interval_1ms = TIMER_INTERVAL / 100;
     b68:	e300351e 	movw	r3, #1310	@ 0x51e
     b6c:	e50b3008 	str	r3, [fp, #-8]

  Timer->timerxload = interval_1ms;
     b70:	e3023244 	movw	r3, #8772	@ 0x2244
     b74:	e3403000 	movt	r3, #0
     b78:	e5933000 	ldr	r3, [r3]
     b7c:	e51b2008 	ldr	r2, [fp, #-8]
     b80:	e5832000 	str	r2, [r3]
  Timer->timerxcontrol.bits.TimerEn = 1;
     b84:	e3023244 	movw	r3, #8772	@ 0x2244
     b88:	e3403000 	movt	r3, #0
     b8c:	e5932000 	ldr	r2, [r3]
     b90:	e5923008 	ldr	r3, [r2, #8]
     b94:	e3833080 	orr	r3, r3, #128	@ 0x80
     b98:	e5823008 	str	r3, [r2, #8]

  internal_1ms_counter = 0;
     b9c:	e3023648 	movw	r3, #9800	@ 0x2648
     ba0:	e3403000 	movt	r3, #0
     ba4:	e3a02000 	mov	r2, #0
     ba8:	e5832000 	str	r2, [r3]

  // Register Timer interrupt handler
  Hal_interrupt_enable(TIMER_INTERRUPT);
     bac:	e3a00024 	mov	r0, #36	@ 0x24
     bb0:	ebffff06 	bl	7d0 <Hal_interrupt_enable>
  Hal_interrupt_register_handler(interrupt_handler, TIMER_INTERRUPT);
     bb4:	e3a01024 	mov	r1, #36	@ 0x24
     bb8:	e3000bf4 	movw	r0, #3060	@ 0xbf4
     bbc:	e3400000 	movt	r0, #0
     bc0:	ebffff6a 	bl	970 <Hal_interrupt_register_handler>
}
     bc4:	e320f000 	nop	{0}
     bc8:	e24bd004 	sub	sp, fp, #4
     bcc:	e8bd8800 	pop	{fp, pc}

00000bd0 <Hal_timer_get_1ms_counter>:

uint32_t Hal_timer_get_1ms_counter(void) {
     bd0:	e52db004 	push	{fp}		@ (str fp, [sp, #-4]!)
     bd4:	e28db000 	add	fp, sp, #0
  return internal_1ms_counter;
     bd8:	e3023648 	movw	r3, #9800	@ 0x2648
     bdc:	e3403000 	movt	r3, #0
     be0:	e5933000 	ldr	r3, [r3]
}
     be4:	e1a00003 	mov	r0, r3
     be8:	e28bd000 	add	sp, fp, #0
     bec:	e49db004 	pop	{fp}		@ (ldr fp, [sp], #4)
     bf0:	e12fff1e 	bx	lr

00000bf4 <interrupt_handler>:

static void interrupt_handler(void) {
     bf4:	e52db004 	push	{fp}		@ (str fp, [sp, #-4]!)
     bf8:	e28db000 	add	fp, sp, #0
  ++internal_1ms_counter;
     bfc:	e3023648 	movw	r3, #9800	@ 0x2648
     c00:	e3403000 	movt	r3, #0
     c04:	e5933000 	ldr	r3, [r3]
     c08:	e2832001 	add	r2, r3, #1
     c0c:	e3023648 	movw	r3, #9800	@ 0x2648
     c10:	e3403000 	movt	r3, #0
     c14:	e5832000 	str	r2, [r3]
  Timer->timerxintclr = 1;
     c18:	e3023244 	movw	r3, #8772	@ 0x2244
     c1c:	e3403000 	movt	r3, #0
     c20:	e5933000 	ldr	r3, [r3]
     c24:	e3a02001 	mov	r2, #1
     c28:	e583200c 	str	r2, [r3, #12]
     c2c:	e320f000 	nop	{0}
     c30:	e28bd000 	add	sp, fp, #0
     c34:	e49db004 	pop	{fp}		@ (ldr fp, [sp], #4)
     c38:	e12fff1e 	bx	lr

00000c3c <Hal_uart_init>:

extern volatile PL011_t* Uart;

static void interrupt_handler(void);

void Hal_uart_init(void) {
     c3c:	e92d4800 	push	{fp, lr}
     c40:	e28db004 	add	fp, sp, #4
  // Enable UART
  Uart->uartcr.bits.UARTEN = 0;
     c44:	e3023238 	movw	r3, #8760	@ 0x2238
     c48:	e3403000 	movt	r3, #0
     c4c:	e5932000 	ldr	r2, [r3]
     c50:	e5923030 	ldr	r3, [r2, #48]	@ 0x30
     c54:	e7c0301f 	bfc	r3, #0, #1
     c58:	e5823030 	str	r3, [r2, #48]	@ 0x30
  Uart->uartcr.bits.TXE = 1;
     c5c:	e3023238 	movw	r3, #8760	@ 0x2238
     c60:	e3403000 	movt	r3, #0
     c64:	e5932000 	ldr	r2, [r3]
     c68:	e5923030 	ldr	r3, [r2, #48]	@ 0x30
     c6c:	e3833c01 	orr	r3, r3, #256	@ 0x100
     c70:	e5823030 	str	r3, [r2, #48]	@ 0x30
  Uart->uartcr.bits.RXE = 1;
     c74:	e3023238 	movw	r3, #8760	@ 0x2238
     c78:	e3403000 	movt	r3, #0
     c7c:	e5932000 	ldr	r2, [r3]
     c80:	e5923030 	ldr	r3, [r2, #48]	@ 0x30
     c84:	e3833c02 	orr	r3, r3, #512	@ 0x200
     c88:	e5823030 	str	r3, [r2, #48]	@ 0x30
  Uart->uartcr.bits.UARTEN = 1;
     c8c:	e3023238 	movw	r3, #8760	@ 0x2238
     c90:	e3403000 	movt	r3, #0
     c94:	e5932000 	ldr	r2, [r3]
     c98:	e5923030 	ldr	r3, [r2, #48]	@ 0x30
     c9c:	e3833001 	orr	r3, r3, #1
     ca0:	e5823030 	str	r3, [r2, #48]	@ 0x30

  // Enable input interrupt
  Uart->uartimsc.bits.RXIM = 1;
     ca4:	e3023238 	movw	r3, #8760	@ 0x2238
     ca8:	e3403000 	movt	r3, #0
     cac:	e5932000 	ldr	r2, [r3]
     cb0:	e5923038 	ldr	r3, [r2, #56]	@ 0x38
     cb4:	e3833010 	orr	r3, r3, #16
     cb8:	e5823038 	str	r3, [r2, #56]	@ 0x38

  // Register UART interrupt handler
  // Hal_interrupt_enable(UART_INTERRUPT0);
  Hal_interrupt_register_handler(interrupt_handler, UART_INTERRUPT0);
     cbc:	e3a0102c 	mov	r1, #44	@ 0x2c
     cc0:	e3000dbc 	movw	r0, #3516	@ 0xdbc
     cc4:	e3400000 	movt	r0, #0
     cc8:	ebffff28 	bl	970 <Hal_interrupt_register_handler>
}
     ccc:	e320f000 	nop	{0}
     cd0:	e8bd8800 	pop	{fp, pc}

00000cd4 <Hal_uart_put_char>:

void Hal_uart_put_char(uint8_t ch) {
     cd4:	e52db004 	push	{fp}		@ (str fp, [sp, #-4]!)
     cd8:	e28db000 	add	fp, sp, #0
     cdc:	e24dd00c 	sub	sp, sp, #12
     ce0:	e1a03000 	mov	r3, r0
     ce4:	e54b3005 	strb	r3, [fp, #-5]
  while(Uart->uartfr.bits.TXFF);
     ce8:	e320f000 	nop	{0}
     cec:	e3023238 	movw	r3, #8760	@ 0x2238
     cf0:	e3403000 	movt	r3, #0
     cf4:	e5933000 	ldr	r3, [r3]
     cf8:	e5933018 	ldr	r3, [r3, #24]
     cfc:	e7e032d3 	ubfx	r3, r3, #5, #1
     d00:	e6ef3073 	uxtb	r3, r3
     d04:	e3530000 	cmp	r3, #0
     d08:	1afffff7 	bne	cec <Hal_uart_put_char+0x18>
  Uart->uartdr.bits.DATA = (ch & 0xFF);
     d0c:	e3023238 	movw	r3, #8760	@ 0x2238
     d10:	e3403000 	movt	r3, #0
     d14:	e5932000 	ldr	r2, [r3]
     d18:	e55b1005 	ldrb	r1, [fp, #-5]
     d1c:	e5923000 	ldr	r3, [r2]
     d20:	e7c73011 	bfi	r3, r1, #0, #8
     d24:	e5823000 	str	r3, [r2]
}
     d28:	e320f000 	nop	{0}
     d2c:	e28bd000 	add	sp, fp, #0
     d30:	e49db004 	pop	{fp}		@ (ldr fp, [sp], #4)
     d34:	e12fff1e 	bx	lr

00000d38 <Hal_uart_get_char>:

uint8_t Hal_uart_get_char(void) {
     d38:	e52db004 	push	{fp}		@ (str fp, [sp, #-4]!)
     d3c:	e28db000 	add	fp, sp, #0
     d40:	e24dd00c 	sub	sp, sp, #12
  uint32_t data;

  while(Uart->uartfr.bits.RXFE);
     d44:	e320f000 	nop	{0}
     d48:	e3023238 	movw	r3, #8760	@ 0x2238
     d4c:	e3403000 	movt	r3, #0
     d50:	e5933000 	ldr	r3, [r3]
     d54:	e5933018 	ldr	r3, [r3, #24]
     d58:	e7e03253 	ubfx	r3, r3, #4, #1
     d5c:	e6ef3073 	uxtb	r3, r3
     d60:	e3530000 	cmp	r3, #0
     d64:	1afffff7 	bne	d48 <Hal_uart_get_char+0x10>

  data = Uart->uartdr.all;
     d68:	e3023238 	movw	r3, #8760	@ 0x2238
     d6c:	e3403000 	movt	r3, #0
     d70:	e5933000 	ldr	r3, [r3]
     d74:	e5933000 	ldr	r3, [r3]
     d78:	e50b3008 	str	r3, [fp, #-8]

  // Check for an error flag
  if(data & 0xFFFFFF00) {
     d7c:	e51b3008 	ldr	r3, [fp, #-8]
     d80:	e35300ff 	cmp	r3, #255	@ 0xff
     d84:	9a000006 	bls	da4 <Hal_uart_get_char+0x6c>
    // Clear the error
    Uart->uartrsr.all = 0xFF;
     d88:	e3023238 	movw	r3, #8760	@ 0x2238
     d8c:	e3403000 	movt	r3, #0
     d90:	e5933000 	ldr	r3, [r3]
     d94:	e3a020ff 	mov	r2, #255	@ 0xff
     d98:	e5832004 	str	r2, [r3, #4]
    return 0;
     d9c:	e3a03000 	mov	r3, #0
     da0:	ea000001 	b	dac <Hal_uart_get_char+0x74>
  }

  return (uint8_t)(data & 0xFF);
     da4:	e51b3008 	ldr	r3, [fp, #-8]
     da8:	e6ef3073 	uxtb	r3, r3
}
     dac:	e1a00003 	mov	r0, r3
     db0:	e28bd000 	add	sp, fp, #0
     db4:	e49db004 	pop	{fp}		@ (ldr fp, [sp], #4)
     db8:	e12fff1e 	bx	lr

00000dbc <interrupt_handler>:

static void interrupt_handler(void) {
     dbc:	e92d4800 	push	{fp, lr}
     dc0:	e28db004 	add	fp, sp, #4
     dc4:	e24dd008 	sub	sp, sp, #8
  uint8_t ch = Hal_uart_get_char();
     dc8:	ebffffda 	bl	d38 <Hal_uart_get_char>
     dcc:	e1a03000 	mov	r3, r0
     dd0:	e54b3005 	strb	r3, [fp, #-5]

  if (ch == 'U') {
     dd4:	e55b3005 	ldrb	r3, [fp, #-5]
     dd8:	e3530055 	cmp	r3, #85	@ 0x55
     ddc:	1a000002 	bne	dec <interrupt_handler+0x30>
    Kernel_send_events(KernelEventFlag_Unlock);
     de0:	e3a00008 	mov	r0, #8
     de4:	eb0001a9 	bl	1490 <Kernel_send_events>
    return;
     de8:	ea00000f 	b	e2c <interrupt_handler+0x70>
  }
  if (ch == 'X') {
     dec:	e55b3005 	ldrb	r3, [fp, #-5]
     df0:	e3530058 	cmp	r3, #88	@ 0x58
     df4:	1a000002 	bne	e04 <interrupt_handler+0x48>
    Kernel_send_events(KernelEventFlag_CmdOut);
     df8:	e3a00004 	mov	r0, #4
     dfc:	eb0001a3 	bl	1490 <Kernel_send_events>
    return;
     e00:	ea000009 	b	e2c <interrupt_handler+0x70>
  }

  Hal_uart_put_char(ch);
     e04:	e55b3005 	ldrb	r3, [fp, #-5]
     e08:	e1a00003 	mov	r0, r3
     e0c:	ebffffb0 	bl	cd4 <Hal_uart_put_char>
  Kernel_send_msg(KernelMsgQ_Task0, &ch, 1);
     e10:	e24b3005 	sub	r3, fp, #5
     e14:	e3a02001 	mov	r2, #1
     e18:	e1a01003 	mov	r1, r3
     e1c:	e3a00000 	mov	r0, #0
     e20:	eb0001e3 	bl	15b4 <Kernel_send_msg>
  Kernel_send_events(KernelEventFlag_UartIn);
     e24:	e3a00001 	mov	r0, #1
     e28:	eb000198 	bl	1490 <Kernel_send_events>
     e2c:	e24bd004 	sub	sp, fp, #4
     e30:	e8bd8800 	pop	{fp, pc}

00000e34 <enable_irq>:
#include "armcpu.h"

void enable_irq(void) {
     e34:	e52db004 	push	{fp}		@ (str fp, [sp, #-4]!)
     e38:	e28db000 	add	fp, sp, #0
  __asm__ ("PUSH {r0, r1}");
     e3c:	e92d0003 	push	{r0, r1}
  __asm__ ("MRS r0, cpsr");
     e40:	e10f0000 	mrs	r0, CPSR
  __asm__ ("BIC r1, r0, #0x80");
     e44:	e3c01080 	bic	r1, r0, #128	@ 0x80
  __asm__ ("MSR cpsr, r1");
     e48:	e129f001 	msr	CPSR_fc, r1
  __asm__ ("POP {r0, r1}");
     e4c:	e8bd0003 	pop	{r0, r1}
}
     e50:	e320f000 	nop	{0}
     e54:	e28bd000 	add	sp, fp, #0
     e58:	e49db004 	pop	{fp}		@ (ldr fp, [sp], #4)
     e5c:	e12fff1e 	bx	lr

00000e60 <enable_fiq>:
void enable_fiq(void) {
     e60:	e52db004 	push	{fp}		@ (str fp, [sp, #-4]!)
     e64:	e28db000 	add	fp, sp, #0
  __asm__ ("PUSH {r0, r1}");
     e68:	e92d0003 	push	{r0, r1}
  __asm__ ("MRS r0, cpsr");
     e6c:	e10f0000 	mrs	r0, CPSR
  __asm__ ("BIC r1, r0, #0x40");
     e70:	e3c01040 	bic	r1, r0, #64	@ 0x40
  __asm__ ("MSR cpsr, r1");
     e74:	e129f001 	msr	CPSR_fc, r1
  __asm__ ("POP {r0, r1}");
     e78:	e8bd0003 	pop	{r0, r1}
}
     e7c:	e320f000 	nop	{0}
     e80:	e28bd000 	add	sp, fp, #0
     e84:	e49db004 	pop	{fp}		@ (ldr fp, [sp], #4)
     e88:	e12fff1e 	bx	lr

00000e8c <disable_irq>:
void disable_irq(void) {
     e8c:	e52db004 	push	{fp}		@ (str fp, [sp, #-4]!)
     e90:	e28db000 	add	fp, sp, #0
  __asm__ ("PUSH {r0, r1}");
     e94:	e92d0003 	push	{r0, r1}
  __asm__ ("MRS r0, cpsr");
     e98:	e10f0000 	mrs	r0, CPSR
  __asm__ ("ORR r1, r0, #0x80");
     e9c:	e3801080 	orr	r1, r0, #128	@ 0x80
  __asm__ ("MSR cpsr, r1");
     ea0:	e129f001 	msr	CPSR_fc, r1
  __asm__ ("POP {r0, r1}");
     ea4:	e8bd0003 	pop	{r0, r1}
}
     ea8:	e320f000 	nop	{0}
     eac:	e28bd000 	add	sp, fp, #0
     eb0:	e49db004 	pop	{fp}		@ (ldr fp, [sp], #4)
     eb4:	e12fff1e 	bx	lr

00000eb8 <disable_fiq>:
void disable_fiq(void) {
     eb8:	e52db004 	push	{fp}		@ (str fp, [sp, #-4]!)
     ebc:	e28db000 	add	fp, sp, #0
  __asm__ ("PUSH {r0, r1}");
     ec0:	e92d0003 	push	{r0, r1}
  __asm__ ("MRS r0, cpsr");
     ec4:	e10f0000 	mrs	r0, CPSR
  __asm__ ("ORR r1, r0, #0x40");
     ec8:	e3801040 	orr	r1, r0, #64	@ 0x40
  __asm__ ("MSR cpsr, r1");
     ecc:	e129f001 	msr	CPSR_fc, r1
  __asm__ ("POP {r0, r1}");
     ed0:	e8bd0003 	pop	{r0, r1}
     ed4:	e320f000 	nop	{0}
     ed8:	e28bd000 	add	sp, fp, #0
     edc:	e49db004 	pop	{fp}		@ (ldr fp, [sp], #4)
     ee0:	e12fff1e 	bx	lr

00000ee4 <putstr>:

#define PRINTF_BUF_LEN 1024

static char printf_buf[PRINTF_BUF_LEN];

uint32_t putstr(const char* s) {
     ee4:	e92d4800 	push	{fp, lr}
     ee8:	e28db004 	add	fp, sp, #4
     eec:	e24dd010 	sub	sp, sp, #16
     ef0:	e50b0010 	str	r0, [fp, #-16]
  uint32_t c = 0;
     ef4:	e3a03000 	mov	r3, #0
     ef8:	e50b3008 	str	r3, [fp, #-8]
  while(*s) {
     efc:	ea000008 	b	f24 <putstr+0x40>
    Hal_uart_put_char(*s++);
     f00:	e51b3010 	ldr	r3, [fp, #-16]
     f04:	e2832001 	add	r2, r3, #1
     f08:	e50b2010 	str	r2, [fp, #-16]
     f0c:	e5d33000 	ldrb	r3, [r3]
     f10:	e1a00003 	mov	r0, r3
     f14:	ebffff6e 	bl	cd4 <Hal_uart_put_char>
    ++c;
     f18:	e51b3008 	ldr	r3, [fp, #-8]
     f1c:	e2833001 	add	r3, r3, #1
     f20:	e50b3008 	str	r3, [fp, #-8]
  while(*s) {
     f24:	e51b3010 	ldr	r3, [fp, #-16]
     f28:	e5d33000 	ldrb	r3, [r3]
     f2c:	e3530000 	cmp	r3, #0
     f30:	1afffff2 	bne	f00 <putstr+0x1c>
  }
  return c;
     f34:	e51b3008 	ldr	r3, [fp, #-8]
}
     f38:	e1a00003 	mov	r0, r3
     f3c:	e24bd004 	sub	sp, fp, #4
     f40:	e8bd8800 	pop	{fp, pc}

00000f44 <debug_printf>:

uint32_t debug_printf(const char* format, ...) { 
     f44:	e92d000f 	push	{r0, r1, r2, r3}
     f48:	e92d4800 	push	{fp, lr}
     f4c:	e28db004 	add	fp, sp, #4
     f50:	e24dd008 	sub	sp, sp, #8
  va_list args; // 가변 인자를 가리킬 수 있는 참조자 선언
  va_start(args, format); // va_start(참조자, 가변인자 이전에 위치한 마지막 고정인자). 참조자가 가변인자를 실제로 참조할 수 있게 함
     f54:	e28b3008 	add	r3, fp, #8
     f58:	e50b3008 	str	r3, [fp, #-8]
  vsprintf(printf_buf, format, args);
     f5c:	e51b2008 	ldr	r2, [fp, #-8]
     f60:	e59b1004 	ldr	r1, [fp, #4]
     f64:	e302064c 	movw	r0, #9804	@ 0x264c
     f68:	e3400000 	movt	r0, #0
     f6c:	eb000008 	bl	f94 <vsprintf>
  va_end(args); // 메모리 해제

  return putstr(printf_buf);
     f70:	e302064c 	movw	r0, #9804	@ 0x264c
     f74:	e3400000 	movt	r0, #0
     f78:	ebffffd9 	bl	ee4 <putstr>
     f7c:	e1a03000 	mov	r3, r0
}
     f80:	e1a00003 	mov	r0, r3
     f84:	e24bd004 	sub	sp, fp, #4
     f88:	e8bd4800 	pop	{fp, lr}
     f8c:	e28dd010 	add	sp, sp, #16
     f90:	e12fff1e 	bx	lr

00000f94 <vsprintf>:

uint32_t vsprintf(char* buf, const char* format, va_list arg) {
     f94:	e92d4800 	push	{fp, lr}
     f98:	e28db004 	add	fp, sp, #4
     f9c:	e24dd028 	sub	sp, sp, #40	@ 0x28
     fa0:	e50b0020 	str	r0, [fp, #-32]	@ 0xffffffe0
     fa4:	e50b1024 	str	r1, [fp, #-36]	@ 0xffffffdc
     fa8:	e50b2028 	str	r2, [fp, #-40]	@ 0xffffffd8
  uint32_t c = 0;
     fac:	e3a03000 	mov	r3, #0
     fb0:	e50b3008 	str	r3, [fp, #-8]
  char ch;
  char* str;
  uint32_t uint;
  uint32_t hex;

  for (uint32_t i = 0; format[i]; ++i) {
     fb4:	e3a03000 	mov	r3, #0
     fb8:	e50b3010 	str	r3, [fp, #-16]
     fbc:	ea000085 	b	11d8 <vsprintf+0x244>
    if (format[i] == '%') {
     fc0:	e51b2024 	ldr	r2, [fp, #-36]	@ 0xffffffdc
     fc4:	e51b3010 	ldr	r3, [fp, #-16]
     fc8:	e0823003 	add	r3, r2, r3
     fcc:	e5d33000 	ldrb	r3, [r3]
     fd0:	e3530025 	cmp	r3, #37	@ 0x25
     fd4:	1a00006a 	bne	1184 <vsprintf+0x1f0>
      ++i;
     fd8:	e51b3010 	ldr	r3, [fp, #-16]
     fdc:	e2833001 	add	r3, r3, #1
     fe0:	e50b3010 	str	r3, [fp, #-16]
      switch(format[i]) {
     fe4:	e51b2024 	ldr	r2, [fp, #-36]	@ 0xffffffdc
     fe8:	e51b3010 	ldr	r3, [fp, #-16]
     fec:	e0823003 	add	r3, r2, r3
     ff0:	e5d33000 	ldrb	r3, [r3]
     ff4:	e2433063 	sub	r3, r3, #99	@ 0x63
     ff8:	e3530015 	cmp	r3, #21
     ffc:	979ff103 	ldrls	pc, [pc, r3, lsl #2]
    1000:	ea000069 	b	11ac <vsprintf+0x218>
    1004:	0000105c 	andeq	r1, r0, ip, asr r0
    1008:	000011ac 	andeq	r1, r0, ip, lsr #3
    100c:	000011ac 	andeq	r1, r0, ip, lsr #3
    1010:	000011ac 	andeq	r1, r0, ip, lsr #3
    1014:	000011ac 	andeq	r1, r0, ip, lsr #3
    1018:	000011ac 	andeq	r1, r0, ip, lsr #3
    101c:	000011ac 	andeq	r1, r0, ip, lsr #3
    1020:	000011ac 	andeq	r1, r0, ip, lsr #3
    1024:	000011ac 	andeq	r1, r0, ip, lsr #3
    1028:	000011ac 	andeq	r1, r0, ip, lsr #3
    102c:	000011ac 	andeq	r1, r0, ip, lsr #3
    1030:	000011ac 	andeq	r1, r0, ip, lsr #3
    1034:	000011ac 	andeq	r1, r0, ip, lsr #3
    1038:	000011ac 	andeq	r1, r0, ip, lsr #3
    103c:	000011ac 	andeq	r1, r0, ip, lsr #3
    1040:	000011ac 	andeq	r1, r0, ip, lsr #3
    1044:	00001090 	muleq	r0, r0, r0
    1048:	000011ac 	andeq	r1, r0, ip, lsr #3
    104c:	000010fc 	strdeq	r1, [r0], -ip
    1050:	000011ac 	andeq	r1, r0, ip, lsr #3
    1054:	000011ac 	andeq	r1, r0, ip, lsr #3
    1058:	00001140 	andeq	r1, r0, r0, asr #2
      case 'c':
        ch = (char)va_arg(arg, int32_t);
    105c:	e51b3028 	ldr	r3, [fp, #-40]	@ 0xffffffd8
    1060:	e2832004 	add	r2, r3, #4
    1064:	e50b2028 	str	r2, [fp, #-40]	@ 0xffffffd8
    1068:	e5933000 	ldr	r3, [r3]
    106c:	e54b3019 	strb	r3, [fp, #-25]	@ 0xffffffe7
        buf[c++] = ch;
    1070:	e51b3008 	ldr	r3, [fp, #-8]
    1074:	e2832001 	add	r2, r3, #1
    1078:	e50b2008 	str	r2, [fp, #-8]
    107c:	e51b2020 	ldr	r2, [fp, #-32]	@ 0xffffffe0
    1080:	e0823003 	add	r3, r2, r3
    1084:	e55b2019 	ldrb	r2, [fp, #-25]	@ 0xffffffe7
    1088:	e5c32000 	strb	r2, [r3]
        break;
    108c:	ea000046 	b	11ac <vsprintf+0x218>
      case 's':
        str = (char*)va_arg(arg, char*);
    1090:	e51b3028 	ldr	r3, [fp, #-40]	@ 0xffffffd8
    1094:	e2832004 	add	r2, r3, #4
    1098:	e50b2028 	str	r2, [fp, #-40]	@ 0xffffffd8
    109c:	e5933000 	ldr	r3, [r3]
    10a0:	e50b300c 	str	r3, [fp, #-12]
        if (str == NULL) {
    10a4:	e51b300c 	ldr	r3, [fp, #-12]
    10a8:	e3530000 	cmp	r3, #0
    10ac:	1a00000d 	bne	10e8 <vsprintf+0x154>
          str = "(null)";
    10b0:	e301331c 	movw	r3, #4892	@ 0x131c
    10b4:	e3403000 	movt	r3, #0
    10b8:	e50b300c 	str	r3, [fp, #-12]
        }
        while (*str) {
    10bc:	ea000009 	b	10e8 <vsprintf+0x154>
          buf[c++] = (*str++);
    10c0:	e51b300c 	ldr	r3, [fp, #-12]
    10c4:	e2832001 	add	r2, r3, #1
    10c8:	e50b200c 	str	r2, [fp, #-12]
    10cc:	e51b2008 	ldr	r2, [fp, #-8]
    10d0:	e2821001 	add	r1, r2, #1
    10d4:	e50b1008 	str	r1, [fp, #-8]
    10d8:	e51b1020 	ldr	r1, [fp, #-32]	@ 0xffffffe0
    10dc:	e0812002 	add	r2, r1, r2
    10e0:	e5d33000 	ldrb	r3, [r3]
    10e4:	e5c23000 	strb	r3, [r2]
        while (*str) {
    10e8:	e51b300c 	ldr	r3, [fp, #-12]
    10ec:	e5d33000 	ldrb	r3, [r3]
    10f0:	e3530000 	cmp	r3, #0
    10f4:	1afffff1 	bne	10c0 <vsprintf+0x12c>
        }
        break;
    10f8:	ea00002b 	b	11ac <vsprintf+0x218>
      case 'u':
        uint = (uint32_t)va_arg(arg, uint32_t);
    10fc:	e51b3028 	ldr	r3, [fp, #-40]	@ 0xffffffd8
    1100:	e2832004 	add	r2, r3, #4
    1104:	e50b2028 	str	r2, [fp, #-40]	@ 0xffffffd8
    1108:	e5933000 	ldr	r3, [r3]
    110c:	e50b3018 	str	r3, [fp, #-24]	@ 0xffffffe8
        c += utoa(&buf[c], uint, utoa_dec);
    1110:	e51b2020 	ldr	r2, [fp, #-32]	@ 0xffffffe0
    1114:	e51b3008 	ldr	r3, [fp, #-8]
    1118:	e0823003 	add	r3, r2, r3
    111c:	e3a0200a 	mov	r2, #10
    1120:	e51b1018 	ldr	r1, [fp, #-24]	@ 0xffffffe8
    1124:	e1a00003 	mov	r0, r3
    1128:	eb000039 	bl	1214 <utoa>
    112c:	e1a02000 	mov	r2, r0
    1130:	e51b3008 	ldr	r3, [fp, #-8]
    1134:	e0833002 	add	r3, r3, r2
    1138:	e50b3008 	str	r3, [fp, #-8]
        break;
    113c:	ea00001a 	b	11ac <vsprintf+0x218>
      case 'x':
        hex = (uint32_t)va_arg(arg, uint32_t);
    1140:	e51b3028 	ldr	r3, [fp, #-40]	@ 0xffffffd8
    1144:	e2832004 	add	r2, r3, #4
    1148:	e50b2028 	str	r2, [fp, #-40]	@ 0xffffffd8
    114c:	e5933000 	ldr	r3, [r3]
    1150:	e50b3014 	str	r3, [fp, #-20]	@ 0xffffffec
        c += utoa(&buf[c], hex, utoa_hex);
    1154:	e51b2020 	ldr	r2, [fp, #-32]	@ 0xffffffe0
    1158:	e51b3008 	ldr	r3, [fp, #-8]
    115c:	e0823003 	add	r3, r2, r3
    1160:	e3a02010 	mov	r2, #16
    1164:	e51b1014 	ldr	r1, [fp, #-20]	@ 0xffffffec
    1168:	e1a00003 	mov	r0, r3
    116c:	eb000028 	bl	1214 <utoa>
    1170:	e1a02000 	mov	r2, r0
    1174:	e51b3008 	ldr	r3, [fp, #-8]
    1178:	e0833002 	add	r3, r3, r2
    117c:	e50b3008 	str	r3, [fp, #-8]
        break;
    1180:	ea000009 	b	11ac <vsprintf+0x218>
      }
    }
    else {
      buf[c++] = format[i];
    1184:	e51b2024 	ldr	r2, [fp, #-36]	@ 0xffffffdc
    1188:	e51b3010 	ldr	r3, [fp, #-16]
    118c:	e0822003 	add	r2, r2, r3
    1190:	e51b3008 	ldr	r3, [fp, #-8]
    1194:	e2831001 	add	r1, r3, #1
    1198:	e50b1008 	str	r1, [fp, #-8]
    119c:	e51b1020 	ldr	r1, [fp, #-32]	@ 0xffffffe0
    11a0:	e0813003 	add	r3, r1, r3
    11a4:	e5d22000 	ldrb	r2, [r2]
    11a8:	e5c32000 	strb	r2, [r3]
    }

    if (c >= PRINTF_BUF_LEN) {
    11ac:	e51b3008 	ldr	r3, [fp, #-8]
    11b0:	e3530b01 	cmp	r3, #1024	@ 0x400
    11b4:	3a000004 	bcc	11cc <vsprintf+0x238>
        buf[0] = '\0';
    11b8:	e51b3020 	ldr	r3, [fp, #-32]	@ 0xffffffe0
    11bc:	e3a02000 	mov	r2, #0
    11c0:	e5c32000 	strb	r2, [r3]
        return 0;
    11c4:	e3a03000 	mov	r3, #0
    11c8:	ea00000e 	b	1208 <vsprintf+0x274>
  for (uint32_t i = 0; format[i]; ++i) {
    11cc:	e51b3010 	ldr	r3, [fp, #-16]
    11d0:	e2833001 	add	r3, r3, #1
    11d4:	e50b3010 	str	r3, [fp, #-16]
    11d8:	e51b2024 	ldr	r2, [fp, #-36]	@ 0xffffffdc
    11dc:	e51b3010 	ldr	r3, [fp, #-16]
    11e0:	e0823003 	add	r3, r2, r3
    11e4:	e5d33000 	ldrb	r3, [r3]
    11e8:	e3530000 	cmp	r3, #0
    11ec:	1affff73 	bne	fc0 <vsprintf+0x2c>
      }
  }

  buf[c] = '\0';
    11f0:	e51b2020 	ldr	r2, [fp, #-32]	@ 0xffffffe0
    11f4:	e51b3008 	ldr	r3, [fp, #-8]
    11f8:	e0823003 	add	r3, r2, r3
    11fc:	e3a02000 	mov	r2, #0
    1200:	e5c32000 	strb	r2, [r3]
  return c;
    1204:	e51b3008 	ldr	r3, [fp, #-8]
}
    1208:	e1a00003 	mov	r0, r3
    120c:	e24bd004 	sub	sp, fp, #4
    1210:	e8bd8800 	pop	{fp, pc}

00001214 <utoa>:

uint32_t utoa(char* buf, uint32_t val, utoa_t base) {
    1214:	e92d4800 	push	{fp, lr}
    1218:	e28db004 	add	fp, sp, #4
    121c:	e24dd028 	sub	sp, sp, #40	@ 0x28
    1220:	e50b0020 	str	r0, [fp, #-32]	@ 0xffffffe0
    1224:	e50b1024 	str	r1, [fp, #-36]	@ 0xffffffdc
    1228:	e1a03002 	mov	r3, r2
    122c:	e54b3025 	strb	r3, [fp, #-37]	@ 0xffffffdb
  uint32_t c = 0;
    1230:	e3a03000 	mov	r3, #0
    1234:	e50b3008 	str	r3, [fp, #-8]
  int32_t idx = 0;
    1238:	e3a03000 	mov	r3, #0
    123c:	e50b300c 	str	r3, [fp, #-12]
  char tmp[11];

  do {
    uint32_t t = val % (uint32_t)base;
    1240:	e55b2025 	ldrb	r2, [fp, #-37]	@ 0xffffffdb
    1244:	e51b3024 	ldr	r3, [fp, #-36]	@ 0xffffffdc
    1248:	e1a01002 	mov	r1, r2
    124c:	e1a00003 	mov	r0, r3
    1250:	eb0003ef 	bl	2214 <__aeabi_uidivmod>
    1254:	e1a03001 	mov	r3, r1
    1258:	e50b3010 	str	r3, [fp, #-16]
    if (t >= 10) {
    125c:	e51b3010 	ldr	r3, [fp, #-16]
    1260:	e3530009 	cmp	r3, #9
    1264:	9a000002 	bls	1274 <utoa+0x60>
      t += 'A' - 10 - '0';
    1268:	e51b3010 	ldr	r3, [fp, #-16]
    126c:	e2833007 	add	r3, r3, #7
    1270:	e50b3010 	str	r3, [fp, #-16]
    }
    tmp[idx++] = (t + '0');
    1274:	e51b3010 	ldr	r3, [fp, #-16]
    1278:	e6ef2073 	uxtb	r2, r3
    127c:	e51b300c 	ldr	r3, [fp, #-12]
    1280:	e2831001 	add	r1, r3, #1
    1284:	e50b100c 	str	r1, [fp, #-12]
    1288:	e2822030 	add	r2, r2, #48	@ 0x30
    128c:	e6ef2072 	uxtb	r2, r2
    1290:	e2433004 	sub	r3, r3, #4
    1294:	e083300b 	add	r3, r3, fp
    1298:	e5432018 	strb	r2, [r3, #-24]	@ 0xffffffe8
    val /= base;
    129c:	e55b3025 	ldrb	r3, [fp, #-37]	@ 0xffffffdb
    12a0:	e1a01003 	mov	r1, r3
    12a4:	e51b0024 	ldr	r0, [fp, #-36]	@ 0xffffffdc
    12a8:	eb00039c 	bl	2120 <__udivsi3>
    12ac:	e1a03000 	mov	r3, r0
    12b0:	e50b3024 	str	r3, [fp, #-36]	@ 0xffffffdc
  } while(val);
    12b4:	e51b3024 	ldr	r3, [fp, #-36]	@ 0xffffffdc
    12b8:	e3530000 	cmp	r3, #0
    12bc:	1affffdf 	bne	1240 <utoa+0x2c>

  // reverse
  --idx; // idx를 부호 있는 정수형으로 선언한 이유
    12c0:	e51b300c 	ldr	r3, [fp, #-12]
    12c4:	e2433001 	sub	r3, r3, #1
    12c8:	e50b300c 	str	r3, [fp, #-12]
  while (idx >= 0) {
    12cc:	ea00000b 	b	1300 <utoa+0xec>
    buf[c++] = tmp[idx--];
    12d0:	e51b300c 	ldr	r3, [fp, #-12]
    12d4:	e2432001 	sub	r2, r3, #1
    12d8:	e50b200c 	str	r2, [fp, #-12]
    12dc:	e51b2008 	ldr	r2, [fp, #-8]
    12e0:	e2821001 	add	r1, r2, #1
    12e4:	e50b1008 	str	r1, [fp, #-8]
    12e8:	e51b1020 	ldr	r1, [fp, #-32]	@ 0xffffffe0
    12ec:	e0812002 	add	r2, r1, r2
    12f0:	e2433004 	sub	r3, r3, #4
    12f4:	e083300b 	add	r3, r3, fp
    12f8:	e5533018 	ldrb	r3, [r3, #-24]	@ 0xffffffe8
    12fc:	e5c23000 	strb	r3, [r2]
  while (idx >= 0) {
    1300:	e51b300c 	ldr	r3, [fp, #-12]
    1304:	e3530000 	cmp	r3, #0
    1308:	aafffff0 	bge	12d0 <utoa+0xbc>
  }

  return c;
    130c:	e51b3008 	ldr	r3, [fp, #-8]
    1310:	e1a00003 	mov	r0, r3
    1314:	e24bd004 	sub	sp, fp, #4
    1318:	e8bd8800 	pop	{fp, pc}
    131c:	6c756e28 	ldclvs	14, cr6, [r5], #-160	@ 0xffffff60
    1320:	0000296c 	andeq	r2, r0, ip, ror #18

00001324 <delay>:
#include "stdint.h"
#include "stdbool.h"
#include "HalTimer.h"

void delay(uint32_t ms) {
    1324:	e92d4800 	push	{fp, lr}
    1328:	e28db004 	add	fp, sp, #4
    132c:	e24dd010 	sub	sp, sp, #16
    1330:	e50b0010 	str	r0, [fp, #-16]
  uint32_t goal = Hal_timer_get_1ms_counter() + ms;
    1334:	ebfffe25 	bl	bd0 <Hal_timer_get_1ms_counter>
    1338:	e1a02000 	mov	r2, r0
    133c:	e51b3010 	ldr	r3, [fp, #-16]
    1340:	e0833002 	add	r3, r3, r2
    1344:	e50b3008 	str	r3, [fp, #-8]
  while(goal != Hal_timer_get_1ms_counter());
    1348:	e320f000 	nop	{0}
    134c:	ebfffe1f 	bl	bd0 <Hal_timer_get_1ms_counter>
    1350:	e1a02000 	mov	r2, r0
    1354:	e51b3008 	ldr	r3, [fp, #-8]
    1358:	e1530002 	cmp	r3, r2
    135c:	1afffffa 	bne	134c <delay+0x28>
    1360:	e320f000 	nop	{0}
    1364:	e320f000 	nop	{0}
    1368:	e24bd004 	sub	sp, fp, #4
    136c:	e8bd8800 	pop	{fp, pc}

00001370 <Kernel_event_flag_init>:
#include "stdio.h"
#include "event.h"

static uint32_t sEventFlag;

void Kernel_event_flag_init(void) {
    1370:	e52db004 	push	{fp}		@ (str fp, [sp, #-4]!)
    1374:	e28db000 	add	fp, sp, #0
  sEventFlag = 0;
    1378:	e3023a4c 	movw	r3, #10828	@ 0x2a4c
    137c:	e3403000 	movt	r3, #0
    1380:	e3a02000 	mov	r2, #0
    1384:	e5832000 	str	r2, [r3]
}
    1388:	e320f000 	nop	{0}
    138c:	e28bd000 	add	sp, fp, #0
    1390:	e49db004 	pop	{fp}		@ (ldr fp, [sp], #4)
    1394:	e12fff1e 	bx	lr

00001398 <Kernel_event_flag_set>:
void Kernel_event_flag_set(KernelEventFlag_t event) {
    1398:	e52db004 	push	{fp}		@ (str fp, [sp, #-4]!)
    139c:	e28db000 	add	fp, sp, #0
    13a0:	e24dd00c 	sub	sp, sp, #12
    13a4:	e50b0008 	str	r0, [fp, #-8]
  sEventFlag |= (uint32_t)event;
    13a8:	e3023a4c 	movw	r3, #10828	@ 0x2a4c
    13ac:	e3403000 	movt	r3, #0
    13b0:	e5932000 	ldr	r2, [r3]
    13b4:	e51b3008 	ldr	r3, [fp, #-8]
    13b8:	e1822003 	orr	r2, r2, r3
    13bc:	e3023a4c 	movw	r3, #10828	@ 0x2a4c
    13c0:	e3403000 	movt	r3, #0
    13c4:	e5832000 	str	r2, [r3]
}
    13c8:	e320f000 	nop	{0}
    13cc:	e28bd000 	add	sp, fp, #0
    13d0:	e49db004 	pop	{fp}		@ (ldr fp, [sp], #4)
    13d4:	e12fff1e 	bx	lr

000013d8 <Kernel_event_flag_clear>:
void Kernel_event_flag_clear(KernelEventFlag_t event) {
    13d8:	e52db004 	push	{fp}		@ (str fp, [sp, #-4]!)
    13dc:	e28db000 	add	fp, sp, #0
    13e0:	e24dd00c 	sub	sp, sp, #12
    13e4:	e50b0008 	str	r0, [fp, #-8]
  sEventFlag &= ~((uint32_t)event);
    13e8:	e51b3008 	ldr	r3, [fp, #-8]
    13ec:	e1e02003 	mvn	r2, r3
    13f0:	e3023a4c 	movw	r3, #10828	@ 0x2a4c
    13f4:	e3403000 	movt	r3, #0
    13f8:	e5933000 	ldr	r3, [r3]
    13fc:	e0022003 	and	r2, r2, r3
    1400:	e3023a4c 	movw	r3, #10828	@ 0x2a4c
    1404:	e3403000 	movt	r3, #0
    1408:	e5832000 	str	r2, [r3]
}
    140c:	e320f000 	nop	{0}
    1410:	e28bd000 	add	sp, fp, #0
    1414:	e49db004 	pop	{fp}		@ (ldr fp, [sp], #4)
    1418:	e12fff1e 	bx	lr

0000141c <Kernel_event_flag_check>:
bool Kernel_event_flag_check(KernelEventFlag_t event) {
    141c:	e92d4800 	push	{fp, lr}
    1420:	e28db004 	add	fp, sp, #4
    1424:	e24dd008 	sub	sp, sp, #8
    1428:	e50b0008 	str	r0, [fp, #-8]
  if(sEventFlag & (uint32_t)event) {
    142c:	e3023a4c 	movw	r3, #10828	@ 0x2a4c
    1430:	e3403000 	movt	r3, #0
    1434:	e5932000 	ldr	r2, [r3]
    1438:	e51b3008 	ldr	r3, [fp, #-8]
    143c:	e0033002 	and	r3, r3, r2
    1440:	e3530000 	cmp	r3, #0
    1444:	0a000003 	beq	1458 <Kernel_event_flag_check+0x3c>
    Kernel_event_flag_clear(event);
    1448:	e51b0008 	ldr	r0, [fp, #-8]
    144c:	ebffffe1 	bl	13d8 <Kernel_event_flag_clear>
    return true;
    1450:	e3a03001 	mov	r3, #1
    1454:	ea000000 	b	145c <Kernel_event_flag_check+0x40>
  }
  return false;
    1458:	e3a03000 	mov	r3, #0
    145c:	e1a00003 	mov	r0, r3
    1460:	e24bd004 	sub	sp, fp, #4
    1464:	e8bd8800 	pop	{fp, pc}

00001468 <Kernel_start>:

#include "Kernel.h"
#include "synch.h"
#include "task.h"

void Kernel_start(void) {
    1468:	e92d4800 	push	{fp, lr}
    146c:	e28db004 	add	fp, sp, #4
  Kernel_task_start();
    1470:	eb0002d8 	bl	1fd8 <Kernel_task_start>
}
    1474:	e320f000 	nop	{0}
    1478:	e8bd8800 	pop	{fp, pc}

0000147c <Kernel_yield>:

void Kernel_yield(void) {
    147c:	e92d4800 	push	{fp, lr}
    1480:	e28db004 	add	fp, sp, #4
  Kernel_task_scheduling();
    1484:	eb0002bf 	bl	1f88 <Kernel_task_scheduling>
}
    1488:	e320f000 	nop	{0}
    148c:	e8bd8800 	pop	{fp, pc}

00001490 <Kernel_send_events>:

void Kernel_send_events(uint32_t event_list) {
    1490:	e92d4800 	push	{fp, lr}
    1494:	e28db004 	add	fp, sp, #4
    1498:	e24dd010 	sub	sp, sp, #16
    149c:	e50b0010 	str	r0, [fp, #-16]
  for(uint32_t i = 0; i < 32; ++i) {
    14a0:	e3a03000 	mov	r3, #0
    14a4:	e50b3008 	str	r3, [fp, #-8]
    14a8:	ea000013 	b	14fc <Kernel_send_events+0x6c>
    if((event_list >> i) & 1) {
    14ac:	e51b2010 	ldr	r2, [fp, #-16]
    14b0:	e51b3008 	ldr	r3, [fp, #-8]
    14b4:	e1a03332 	lsr	r3, r2, r3
    14b8:	e2033001 	and	r3, r3, #1
    14bc:	e3530000 	cmp	r3, #0
    14c0:	0a00000a 	beq	14f0 <Kernel_send_events+0x60>
      KernelEventFlag_t sending_event = KernelEventFlag_Empty;
    14c4:	e3a03000 	mov	r3, #0
    14c8:	e50b300c 	str	r3, [fp, #-12]
      sending_event = (KernelEventFlag_t)SET_BIT(sending_event, i);
    14cc:	e3a02001 	mov	r2, #1
    14d0:	e51b3008 	ldr	r3, [fp, #-8]
    14d4:	e1a03312 	lsl	r3, r2, r3
    14d8:	e1a02003 	mov	r2, r3
    14dc:	e51b300c 	ldr	r3, [fp, #-12]
    14e0:	e1833002 	orr	r3, r3, r2
    14e4:	e50b300c 	str	r3, [fp, #-12]
      Kernel_event_flag_set(sending_event);
    14e8:	e51b000c 	ldr	r0, [fp, #-12]
    14ec:	ebffffa9 	bl	1398 <Kernel_event_flag_set>
  for(uint32_t i = 0; i < 32; ++i) {
    14f0:	e51b3008 	ldr	r3, [fp, #-8]
    14f4:	e2833001 	add	r3, r3, #1
    14f8:	e50b3008 	str	r3, [fp, #-8]
    14fc:	e51b3008 	ldr	r3, [fp, #-8]
    1500:	e353001f 	cmp	r3, #31
    1504:	9affffe8 	bls	14ac <Kernel_send_events+0x1c>
    }
  }
}
    1508:	e320f000 	nop	{0}
    150c:	e320f000 	nop	{0}
    1510:	e24bd004 	sub	sp, fp, #4
    1514:	e8bd8800 	pop	{fp, pc}

00001518 <Kernel_wait_events>:

KernelEventFlag_t Kernel_wait_events(uint32_t waiting_list) {
    1518:	e92d4800 	push	{fp, lr}
    151c:	e28db004 	add	fp, sp, #4
    1520:	e24dd010 	sub	sp, sp, #16
    1524:	e50b0010 	str	r0, [fp, #-16]
  for(uint32_t i = 0; i < 32; ++i) {
    1528:	e3a03000 	mov	r3, #0
    152c:	e50b3008 	str	r3, [fp, #-8]
    1530:	ea000018 	b	1598 <Kernel_wait_events+0x80>
    if((waiting_list >> i) & 1) {
    1534:	e51b2010 	ldr	r2, [fp, #-16]
    1538:	e51b3008 	ldr	r3, [fp, #-8]
    153c:	e1a03332 	lsr	r3, r2, r3
    1540:	e2033001 	and	r3, r3, #1
    1544:	e3530000 	cmp	r3, #0
    1548:	0a00000f 	beq	158c <Kernel_wait_events+0x74>
      KernelEventFlag_t waiting_event = KernelEventFlag_Empty;
    154c:	e3a03000 	mov	r3, #0
    1550:	e50b300c 	str	r3, [fp, #-12]
      waiting_event = (KernelEventFlag_t)SET_BIT(waiting_event, i);
    1554:	e3a02001 	mov	r2, #1
    1558:	e51b3008 	ldr	r3, [fp, #-8]
    155c:	e1a03312 	lsl	r3, r2, r3
    1560:	e1a02003 	mov	r2, r3
    1564:	e51b300c 	ldr	r3, [fp, #-12]
    1568:	e1833002 	orr	r3, r3, r2
    156c:	e50b300c 	str	r3, [fp, #-12]

      if(Kernel_event_flag_check(waiting_event)) {
    1570:	e51b000c 	ldr	r0, [fp, #-12]
    1574:	ebffffa8 	bl	141c <Kernel_event_flag_check>
    1578:	e1a03000 	mov	r3, r0
    157c:	e3530000 	cmp	r3, #0
    1580:	0a000001 	beq	158c <Kernel_wait_events+0x74>
        return waiting_event;
    1584:	e51b300c 	ldr	r3, [fp, #-12]
    1588:	ea000006 	b	15a8 <Kernel_wait_events+0x90>
  for(uint32_t i = 0; i < 32; ++i) {
    158c:	e51b3008 	ldr	r3, [fp, #-8]
    1590:	e2833001 	add	r3, r3, #1
    1594:	e50b3008 	str	r3, [fp, #-8]
    1598:	e51b3008 	ldr	r3, [fp, #-8]
    159c:	e353001f 	cmp	r3, #31
    15a0:	9affffe3 	bls	1534 <Kernel_wait_events+0x1c>
      }
    }
  }

  return KernelEventFlag_Empty;
    15a4:	e3a03000 	mov	r3, #0
}
    15a8:	e1a00003 	mov	r0, r3
    15ac:	e24bd004 	sub	sp, fp, #4
    15b0:	e8bd8800 	pop	{fp, pc}

000015b4 <Kernel_send_msg>:

bool Kernel_send_msg(KernelMsgQ_t Qname, void* data, uint32_t count) {
    15b4:	e92d4800 	push	{fp, lr}
    15b8:	e28db004 	add	fp, sp, #4
    15bc:	e24dd020 	sub	sp, sp, #32
    15c0:	e1a03000 	mov	r3, r0
    15c4:	e50b101c 	str	r1, [fp, #-28]	@ 0xffffffe4
    15c8:	e50b2020 	str	r2, [fp, #-32]	@ 0xffffffe0
    15cc:	e54b3015 	strb	r3, [fp, #-21]	@ 0xffffffeb
  uint8_t* d = (uint8_t*)data;
    15d0:	e51b301c 	ldr	r3, [fp, #-28]	@ 0xffffffe4
    15d4:	e50b3008 	str	r3, [fp, #-8]

  for(uint32_t i = 0; i < count; ++i) {
    15d8:	e3a03000 	mov	r3, #0
    15dc:	e50b300c 	str	r3, [fp, #-12]
    15e0:	ea000021 	b	166c <Kernel_send_msg+0xb8>
    if(!Kernel_msgQ_enqueue(Qname, *d)) {
    15e4:	e51b3008 	ldr	r3, [fp, #-8]
    15e8:	e5d32000 	ldrb	r2, [r3]
    15ec:	e55b3015 	ldrb	r3, [fp, #-21]	@ 0xffffffeb
    15f0:	e1a01002 	mov	r1, r2
    15f4:	e1a00003 	mov	r0, r3
    15f8:	eb0000e4 	bl	1990 <Kernel_msgQ_enqueue>
    15fc:	e1a03000 	mov	r3, r0
    1600:	e2233001 	eor	r3, r3, #1
    1604:	e6ef3073 	uxtb	r3, r3
    1608:	e3530000 	cmp	r3, #0
    160c:	0a000010 	beq	1654 <Kernel_send_msg+0xa0>
      for(uint32_t j = 0; j < i; ++j) {
    1610:	e3a03000 	mov	r3, #0
    1614:	e50b3010 	str	r3, [fp, #-16]
    1618:	ea000007 	b	163c <Kernel_send_msg+0x88>
        uint8_t rollback;
        Kernel_msgQ_dequeue(Qname, &rollback);
    161c:	e24b2011 	sub	r2, fp, #17
    1620:	e55b3015 	ldrb	r3, [fp, #-21]	@ 0xffffffeb
    1624:	e1a01002 	mov	r1, r2
    1628:	e1a00003 	mov	r0, r3
    162c:	eb000124 	bl	1ac4 <Kernel_msgQ_dequeue>
      for(uint32_t j = 0; j < i; ++j) {
    1630:	e51b3010 	ldr	r3, [fp, #-16]
    1634:	e2833001 	add	r3, r3, #1
    1638:	e50b3010 	str	r3, [fp, #-16]
    163c:	e51b2010 	ldr	r2, [fp, #-16]
    1640:	e51b300c 	ldr	r3, [fp, #-12]
    1644:	e1520003 	cmp	r2, r3
    1648:	3afffff3 	bcc	161c <Kernel_send_msg+0x68>
      }
      return false;
    164c:	e3a03000 	mov	r3, #0
    1650:	ea00000a 	b	1680 <Kernel_send_msg+0xcc>
    }
    ++d;
    1654:	e51b3008 	ldr	r3, [fp, #-8]
    1658:	e2833001 	add	r3, r3, #1
    165c:	e50b3008 	str	r3, [fp, #-8]
  for(uint32_t i = 0; i < count; ++i) {
    1660:	e51b300c 	ldr	r3, [fp, #-12]
    1664:	e2833001 	add	r3, r3, #1
    1668:	e50b300c 	str	r3, [fp, #-12]
    166c:	e51b200c 	ldr	r2, [fp, #-12]
    1670:	e51b3020 	ldr	r3, [fp, #-32]	@ 0xffffffe0
    1674:	e1520003 	cmp	r2, r3
    1678:	3affffd9 	bcc	15e4 <Kernel_send_msg+0x30>
  }

  return true;
    167c:	e3a03001 	mov	r3, #1
}
    1680:	e1a00003 	mov	r0, r3
    1684:	e24bd004 	sub	sp, fp, #4
    1688:	e8bd8800 	pop	{fp, pc}

0000168c <Kernel_recv_msg>:

uint32_t Kernel_recv_msg(KernelMsgQ_t Qname, void* out_data, uint32_t count) {
    168c:	e92d4800 	push	{fp, lr}
    1690:	e28db004 	add	fp, sp, #4
    1694:	e24dd018 	sub	sp, sp, #24
    1698:	e1a03000 	mov	r3, r0
    169c:	e50b1014 	str	r1, [fp, #-20]	@ 0xffffffec
    16a0:	e50b2018 	str	r2, [fp, #-24]	@ 0xffffffe8
    16a4:	e54b300d 	strb	r3, [fp, #-13]
  uint8_t* d = (uint8_t*)out_data;
    16a8:	e51b3014 	ldr	r3, [fp, #-20]	@ 0xffffffec
    16ac:	e50b3008 	str	r3, [fp, #-8]

  for(uint32_t i = 0; i < count; ++i) {
    16b0:	e3a03000 	mov	r3, #0
    16b4:	e50b300c 	str	r3, [fp, #-12]
    16b8:	ea000010 	b	1700 <Kernel_recv_msg+0x74>
    if(!Kernel_msgQ_dequeue(Qname, d)) {
    16bc:	e55b300d 	ldrb	r3, [fp, #-13]
    16c0:	e51b1008 	ldr	r1, [fp, #-8]
    16c4:	e1a00003 	mov	r0, r3
    16c8:	eb0000fd 	bl	1ac4 <Kernel_msgQ_dequeue>
    16cc:	e1a03000 	mov	r3, r0
    16d0:	e2233001 	eor	r3, r3, #1
    16d4:	e6ef3073 	uxtb	r3, r3
    16d8:	e3530000 	cmp	r3, #0
    16dc:	0a000001 	beq	16e8 <Kernel_recv_msg+0x5c>
      return i;
    16e0:	e51b300c 	ldr	r3, [fp, #-12]
    16e4:	ea00000a 	b	1714 <Kernel_recv_msg+0x88>
    }
    ++d;
    16e8:	e51b3008 	ldr	r3, [fp, #-8]
    16ec:	e2833001 	add	r3, r3, #1
    16f0:	e50b3008 	str	r3, [fp, #-8]
  for(uint32_t i = 0; i < count; ++i) {
    16f4:	e51b300c 	ldr	r3, [fp, #-12]
    16f8:	e2833001 	add	r3, r3, #1
    16fc:	e50b300c 	str	r3, [fp, #-12]
    1700:	e51b200c 	ldr	r2, [fp, #-12]
    1704:	e51b3018 	ldr	r3, [fp, #-24]	@ 0xffffffe8
    1708:	e1520003 	cmp	r2, r3
    170c:	3affffea 	bcc	16bc <Kernel_recv_msg+0x30>
  }

  return count;
    1710:	e51b3018 	ldr	r3, [fp, #-24]	@ 0xffffffe8
}
    1714:	e1a00003 	mov	r0, r3
    1718:	e24bd004 	sub	sp, fp, #4
    171c:	e8bd8800 	pop	{fp, pc}

00001720 <Kernel_lock_sem>:

void Kernel_lock_sem(void) {
    1720:	e92d4800 	push	{fp, lr}
    1724:	e28db004 	add	fp, sp, #4
  while (!Kernel_sem_test()) {
    1728:	ea000000 	b	1730 <Kernel_lock_sem+0x10>
    Kernel_yield();
    172c:	ebffff52 	bl	147c <Kernel_yield>
  while (!Kernel_sem_test()) {
    1730:	eb00013f 	bl	1c34 <Kernel_sem_test>
    1734:	e1a03000 	mov	r3, r0
    1738:	e2233001 	eor	r3, r3, #1
    173c:	e6ef3073 	uxtb	r3, r3
    1740:	e3530000 	cmp	r3, #0
    1744:	1afffff8 	bne	172c <Kernel_lock_sem+0xc>
  }
}
    1748:	e320f000 	nop	{0}
    174c:	e320f000 	nop	{0}
    1750:	e8bd8800 	pop	{fp, pc}

00001754 <Kernel_unlock_sem>:

void Kernel_unlock_sem(void) {
    1754:	e92d4800 	push	{fp, lr}
    1758:	e28db004 	add	fp, sp, #4
  Kernel_sem_release();
    175c:	eb000149 	bl	1c88 <Kernel_sem_release>
}
    1760:	e320f000 	nop	{0}
    1764:	e8bd8800 	pop	{fp, pc}

00001768 <Kernel_lock_mutex>:

void Kernel_lock_mutex(void) {
    1768:	e92d4800 	push	{fp, lr}
    176c:	e28db004 	add	fp, sp, #4
    1770:	e24dd008 	sub	sp, sp, #8
  while(true) {
    uint32_t current_task_id = Kernel_task_get_current_task_id();
    1774:	eb00022e 	bl	2034 <Kernel_task_get_current_task_id>
    1778:	e50b0008 	str	r0, [fp, #-8]
    if(!Kernel_mutex_lock(current_task_id)) {
    177c:	e51b0008 	ldr	r0, [fp, #-8]
    1780:	eb000169 	bl	1d2c <Kernel_mutex_lock>
    1784:	e1a03000 	mov	r3, r0
    1788:	e2233001 	eor	r3, r3, #1
    178c:	e6ef3073 	uxtb	r3, r3
    1790:	e3530000 	cmp	r3, #0
    1794:	0a000001 	beq	17a0 <Kernel_lock_mutex+0x38>
      Kernel_yield();
    1798:	ebffff37 	bl	147c <Kernel_yield>
  while(true) {
    179c:	eafffff4 	b	1774 <Kernel_lock_mutex+0xc>
    }
    else {
      break;
    17a0:	e320f000 	nop	{0}
    }
  }
}
    17a4:	e320f000 	nop	{0}
    17a8:	e24bd004 	sub	sp, fp, #4
    17ac:	e8bd8800 	pop	{fp, pc}

000017b0 <Kernel_unlock_mutex>:

void Kernel_unlock_mutex(void) {
    17b0:	e92d4800 	push	{fp, lr}
    17b4:	e28db004 	add	fp, sp, #4
    17b8:	e24dd008 	sub	sp, sp, #8
  uint32_t current_task_id = Kernel_task_get_current_task_id();
    17bc:	eb00021c 	bl	2034 <Kernel_task_get_current_task_id>
    17c0:	e50b0008 	str	r0, [fp, #-8]
  if(!Kernel_mutex_unlock(current_task_id)) {
    17c4:	e51b0008 	ldr	r0, [fp, #-8]
    17c8:	eb00016f 	bl	1d8c <Kernel_mutex_unlock>
    17cc:	e1a03000 	mov	r3, r0
    17d0:	e2233001 	eor	r3, r3, #1
    17d4:	e6ef3073 	uxtb	r3, r3
    17d8:	e3530000 	cmp	r3, #0
    17dc:	0a000000 	beq	17e4 <Kernel_unlock_mutex+0x34>
    Kernel_yield();
    17e0:	ebffff25 	bl	147c <Kernel_yield>
  }
    17e4:	e320f000 	nop	{0}
    17e8:	e24bd004 	sub	sp, fp, #4
    17ec:	e8bd8800 	pop	{fp, pc}

000017f0 <Kernel_msgQ_init>:

#include "msg.h"

static KernelCirQ_t sMsgQ[KernelMsgQ_Num];

void Kernel_msgQ_init(void) {
    17f0:	e52db004 	push	{fp}		@ (str fp, [sp, #-4]!)
    17f4:	e28db000 	add	fp, sp, #0
    17f8:	e24dd00c 	sub	sp, sp, #12
  for (uint32_t i = 0; i < KernelMsgQ_Num; ++i) {
    17fc:	e3a03000 	mov	r3, #0
    1800:	e50b3008 	str	r3, [fp, #-8]
    1804:	ea000013 	b	1858 <Kernel_msgQ_init+0x68>
    sMsgQ[i].front = 0;
    1808:	e3023a50 	movw	r3, #10832	@ 0x2a50
    180c:	e3403000 	movt	r3, #0
    1810:	e51b2008 	ldr	r2, [fp, #-8]
    1814:	e3a01f82 	mov	r1, #520	@ 0x208
    1818:	e0020291 	mul	r2, r1, r2
    181c:	e0833002 	add	r3, r3, r2
    1820:	e3a02000 	mov	r2, #0
    1824:	e5832000 	str	r2, [r3]
    sMsgQ[i].rear = 0;
    1828:	e3023a50 	movw	r3, #10832	@ 0x2a50
    182c:	e3403000 	movt	r3, #0
    1830:	e51b2008 	ldr	r2, [fp, #-8]
    1834:	e3a01f82 	mov	r1, #520	@ 0x208
    1838:	e0020291 	mul	r2, r1, r2
    183c:	e0833002 	add	r3, r3, r2
    1840:	e2833004 	add	r3, r3, #4
    1844:	e3a02000 	mov	r2, #0
    1848:	e5832000 	str	r2, [r3]
  for (uint32_t i = 0; i < KernelMsgQ_Num; ++i) {
    184c:	e51b3008 	ldr	r3, [fp, #-8]
    1850:	e2833001 	add	r3, r3, #1
    1854:	e50b3008 	str	r3, [fp, #-8]
    1858:	e51b3008 	ldr	r3, [fp, #-8]
    185c:	e3530002 	cmp	r3, #2
    1860:	9affffe8 	bls	1808 <Kernel_msgQ_init+0x18>
  }
}
    1864:	e320f000 	nop	{0}
    1868:	e320f000 	nop	{0}
    186c:	e28bd000 	add	sp, fp, #0
    1870:	e49db004 	pop	{fp}		@ (ldr fp, [sp], #4)
    1874:	e12fff1e 	bx	lr

00001878 <Kernel_msgQ_is_empty>:
bool Kernel_msgQ_is_empty(KernelMsgQ_t Qname) {
    1878:	e52db004 	push	{fp}		@ (str fp, [sp, #-4]!)
    187c:	e28db000 	add	fp, sp, #0
    1880:	e24dd00c 	sub	sp, sp, #12
    1884:	e1a03000 	mov	r3, r0
    1888:	e54b3005 	strb	r3, [fp, #-5]
  if (Qname >= KernelMsgQ_Num) {
    188c:	e55b3005 	ldrb	r3, [fp, #-5]
    1890:	e3530002 	cmp	r3, #2
    1894:	9a000001 	bls	18a0 <Kernel_msgQ_is_empty+0x28>
    return false;
    1898:	e3a03000 	mov	r3, #0
    189c:	ea000013 	b	18f0 <Kernel_msgQ_is_empty+0x78>
  }
  if (sMsgQ[Qname].front == sMsgQ[Qname].rear) {
    18a0:	e55b2005 	ldrb	r2, [fp, #-5]
    18a4:	e3023a50 	movw	r3, #10832	@ 0x2a50
    18a8:	e3403000 	movt	r3, #0
    18ac:	e3a01f82 	mov	r1, #520	@ 0x208
    18b0:	e0020291 	mul	r2, r1, r2
    18b4:	e0833002 	add	r3, r3, r2
    18b8:	e5932000 	ldr	r2, [r3]
    18bc:	e55b1005 	ldrb	r1, [fp, #-5]
    18c0:	e3023a50 	movw	r3, #10832	@ 0x2a50
    18c4:	e3403000 	movt	r3, #0
    18c8:	e3a00f82 	mov	r0, #520	@ 0x208
    18cc:	e0010190 	mul	r1, r0, r1
    18d0:	e0833001 	add	r3, r3, r1
    18d4:	e2833004 	add	r3, r3, #4
    18d8:	e5933000 	ldr	r3, [r3]
    18dc:	e1520003 	cmp	r2, r3
    18e0:	1a000001 	bne	18ec <Kernel_msgQ_is_empty+0x74>
    return true;
    18e4:	e3a03001 	mov	r3, #1
    18e8:	ea000000 	b	18f0 <Kernel_msgQ_is_empty+0x78>
  }
  return false;
    18ec:	e3a03000 	mov	r3, #0
}
    18f0:	e1a00003 	mov	r0, r3
    18f4:	e28bd000 	add	sp, fp, #0
    18f8:	e49db004 	pop	{fp}		@ (ldr fp, [sp], #4)
    18fc:	e12fff1e 	bx	lr

00001900 <Kernel_msgQ_is_full>:
bool Kernel_msgQ_is_full(KernelMsgQ_t Qname) {
    1900:	e52db004 	push	{fp}		@ (str fp, [sp, #-4]!)
    1904:	e28db000 	add	fp, sp, #0
    1908:	e24dd00c 	sub	sp, sp, #12
    190c:	e1a03000 	mov	r3, r0
    1910:	e54b3005 	strb	r3, [fp, #-5]
  if (Qname >= KernelMsgQ_Num) {
    1914:	e55b3005 	ldrb	r3, [fp, #-5]
    1918:	e3530002 	cmp	r3, #2
    191c:	9a000001 	bls	1928 <Kernel_msgQ_is_full+0x28>
    return false;
    1920:	e3a03000 	mov	r3, #0
    1924:	ea000015 	b	1980 <Kernel_msgQ_is_full+0x80>
  }
  if (((sMsgQ[Qname].rear) + 1) % MSG_Q_SIZE_BYTE == sMsgQ[Qname].front) {
    1928:	e55b2005 	ldrb	r2, [fp, #-5]
    192c:	e3023a50 	movw	r3, #10832	@ 0x2a50
    1930:	e3403000 	movt	r3, #0
    1934:	e3a01f82 	mov	r1, #520	@ 0x208
    1938:	e0020291 	mul	r2, r1, r2
    193c:	e0833002 	add	r3, r3, r2
    1940:	e2833004 	add	r3, r3, #4
    1944:	e5933000 	ldr	r3, [r3]
    1948:	e2833001 	add	r3, r3, #1
    194c:	e7e82053 	ubfx	r2, r3, #0, #9
    1950:	e55b1005 	ldrb	r1, [fp, #-5]
    1954:	e3023a50 	movw	r3, #10832	@ 0x2a50
    1958:	e3403000 	movt	r3, #0
    195c:	e3a00f82 	mov	r0, #520	@ 0x208
    1960:	e0010190 	mul	r1, r0, r1
    1964:	e0833001 	add	r3, r3, r1
    1968:	e5933000 	ldr	r3, [r3]
    196c:	e1520003 	cmp	r2, r3
    1970:	1a000001 	bne	197c <Kernel_msgQ_is_full+0x7c>
    return true;
    1974:	e3a03001 	mov	r3, #1
    1978:	ea000000 	b	1980 <Kernel_msgQ_is_full+0x80>
  }
  return false;
    197c:	e3a03000 	mov	r3, #0
}
    1980:	e1a00003 	mov	r0, r3
    1984:	e28bd000 	add	sp, fp, #0
    1988:	e49db004 	pop	{fp}		@ (ldr fp, [sp], #4)
    198c:	e12fff1e 	bx	lr

00001990 <Kernel_msgQ_enqueue>:
bool Kernel_msgQ_enqueue(KernelMsgQ_t Qname, uint8_t data) {
    1990:	e92d4800 	push	{fp, lr}
    1994:	e28db004 	add	fp, sp, #4
    1998:	e24dd008 	sub	sp, sp, #8
    199c:	e1a03000 	mov	r3, r0
    19a0:	e1a02001 	mov	r2, r1
    19a4:	e54b3005 	strb	r3, [fp, #-5]
    19a8:	e1a03002 	mov	r3, r2
    19ac:	e54b3006 	strb	r3, [fp, #-6]
  if (Qname >= KernelMsgQ_Num) {
    19b0:	e55b3005 	ldrb	r3, [fp, #-5]
    19b4:	e3530002 	cmp	r3, #2
    19b8:	9a000001 	bls	19c4 <Kernel_msgQ_enqueue+0x34>
    return false;
    19bc:	e3a03000 	mov	r3, #0
    19c0:	ea00003c 	b	1ab8 <Kernel_msgQ_enqueue+0x128>
  }
  if (Kernel_msgQ_is_full(Qname)) {
    19c4:	e55b3005 	ldrb	r3, [fp, #-5]
    19c8:	e1a00003 	mov	r0, r3
    19cc:	ebffffcb 	bl	1900 <Kernel_msgQ_is_full>
    19d0:	e1a03000 	mov	r3, r0
    19d4:	e3530000 	cmp	r3, #0
    19d8:	0a000001 	beq	19e4 <Kernel_msgQ_enqueue+0x54>
    return false;
    19dc:	e3a03000 	mov	r3, #0
    19e0:	ea000034 	b	1ab8 <Kernel_msgQ_enqueue+0x128>
  }
  ++sMsgQ[Qname].rear;
    19e4:	e55b2005 	ldrb	r2, [fp, #-5]
    19e8:	e3023a50 	movw	r3, #10832	@ 0x2a50
    19ec:	e3403000 	movt	r3, #0
    19f0:	e3a01f82 	mov	r1, #520	@ 0x208
    19f4:	e0010291 	mul	r1, r1, r2
    19f8:	e0833001 	add	r3, r3, r1
    19fc:	e2833004 	add	r3, r3, #4
    1a00:	e5933000 	ldr	r3, [r3]
    1a04:	e2831001 	add	r1, r3, #1
    1a08:	e3023a50 	movw	r3, #10832	@ 0x2a50
    1a0c:	e3403000 	movt	r3, #0
    1a10:	e3a00f82 	mov	r0, #520	@ 0x208
    1a14:	e0020290 	mul	r2, r0, r2
    1a18:	e0833002 	add	r3, r3, r2
    1a1c:	e2833004 	add	r3, r3, #4
    1a20:	e5831000 	str	r1, [r3]
  sMsgQ[Qname].rear = (sMsgQ[Qname].rear + 1) % MSG_Q_SIZE_BYTE;
    1a24:	e55b2005 	ldrb	r2, [fp, #-5]
    1a28:	e3023a50 	movw	r3, #10832	@ 0x2a50
    1a2c:	e3403000 	movt	r3, #0
    1a30:	e3a01f82 	mov	r1, #520	@ 0x208
    1a34:	e0020291 	mul	r2, r1, r2
    1a38:	e0833002 	add	r3, r3, r2
    1a3c:	e2833004 	add	r3, r3, #4
    1a40:	e5933000 	ldr	r3, [r3]
    1a44:	e2833001 	add	r3, r3, #1
    1a48:	e55b1005 	ldrb	r1, [fp, #-5]
    1a4c:	e7e82053 	ubfx	r2, r3, #0, #9
    1a50:	e3023a50 	movw	r3, #10832	@ 0x2a50
    1a54:	e3403000 	movt	r3, #0
    1a58:	e3a00f82 	mov	r0, #520	@ 0x208
    1a5c:	e0010190 	mul	r1, r0, r1
    1a60:	e0833001 	add	r3, r3, r1
    1a64:	e2833004 	add	r3, r3, #4
    1a68:	e5832000 	str	r2, [r3]

  sMsgQ[Qname].Queue[sMsgQ[Qname].rear] = data;
    1a6c:	e55b1005 	ldrb	r1, [fp, #-5]
    1a70:	e55b2005 	ldrb	r2, [fp, #-5]
    1a74:	e3023a50 	movw	r3, #10832	@ 0x2a50
    1a78:	e3403000 	movt	r3, #0
    1a7c:	e3a00f82 	mov	r0, #520	@ 0x208
    1a80:	e0020290 	mul	r2, r0, r2
    1a84:	e0833002 	add	r3, r3, r2
    1a88:	e2833004 	add	r3, r3, #4
    1a8c:	e5932000 	ldr	r2, [r3]
    1a90:	e3023a50 	movw	r3, #10832	@ 0x2a50
    1a94:	e3403000 	movt	r3, #0
    1a98:	e3a00f82 	mov	r0, #520	@ 0x208
    1a9c:	e0010190 	mul	r1, r0, r1
    1aa0:	e0833001 	add	r3, r3, r1
    1aa4:	e0833002 	add	r3, r3, r2
    1aa8:	e2833008 	add	r3, r3, #8
    1aac:	e55b2006 	ldrb	r2, [fp, #-6]
    1ab0:	e5c32000 	strb	r2, [r3]
  return true;
    1ab4:	e3a03001 	mov	r3, #1
}
    1ab8:	e1a00003 	mov	r0, r3
    1abc:	e24bd004 	sub	sp, fp, #4
    1ac0:	e8bd8800 	pop	{fp, pc}

00001ac4 <Kernel_msgQ_dequeue>:
bool Kernel_msgQ_dequeue(KernelMsgQ_t Qname, uint8_t* out_data) {
    1ac4:	e92d4800 	push	{fp, lr}
    1ac8:	e28db004 	add	fp, sp, #4
    1acc:	e24dd008 	sub	sp, sp, #8
    1ad0:	e1a03000 	mov	r3, r0
    1ad4:	e50b100c 	str	r1, [fp, #-12]
    1ad8:	e54b3005 	strb	r3, [fp, #-5]
  if (Qname >= KernelMsgQ_Num) {
    1adc:	e55b3005 	ldrb	r3, [fp, #-5]
    1ae0:	e3530002 	cmp	r3, #2
    1ae4:	9a000001 	bls	1af0 <Kernel_msgQ_dequeue+0x2c>
    return false;
    1ae8:	e3a03000 	mov	r3, #0
    1aec:	ea000038 	b	1bd4 <Kernel_msgQ_dequeue+0x110>
  }
  if (Kernel_msgQ_is_empty(Qname)) {
    1af0:	e55b3005 	ldrb	r3, [fp, #-5]
    1af4:	e1a00003 	mov	r0, r3
    1af8:	ebffff5e 	bl	1878 <Kernel_msgQ_is_empty>
    1afc:	e1a03000 	mov	r3, r0
    1b00:	e3530000 	cmp	r3, #0
    1b04:	0a000001 	beq	1b10 <Kernel_msgQ_dequeue+0x4c>
    return false;
    1b08:	e3a03000 	mov	r3, #0
    1b0c:	ea000030 	b	1bd4 <Kernel_msgQ_dequeue+0x110>
  }
  ++sMsgQ[Qname].front;
    1b10:	e55b2005 	ldrb	r2, [fp, #-5]
    1b14:	e3023a50 	movw	r3, #10832	@ 0x2a50
    1b18:	e3403000 	movt	r3, #0
    1b1c:	e3a01f82 	mov	r1, #520	@ 0x208
    1b20:	e0010291 	mul	r1, r1, r2
    1b24:	e0833001 	add	r3, r3, r1
    1b28:	e5933000 	ldr	r3, [r3]
    1b2c:	e2831001 	add	r1, r3, #1
    1b30:	e3023a50 	movw	r3, #10832	@ 0x2a50
    1b34:	e3403000 	movt	r3, #0
    1b38:	e3a00f82 	mov	r0, #520	@ 0x208
    1b3c:	e0020290 	mul	r2, r0, r2
    1b40:	e0833002 	add	r3, r3, r2
    1b44:	e5831000 	str	r1, [r3]
  sMsgQ[Qname].front = (sMsgQ[Qname].front + 1) % MSG_Q_SIZE_BYTE;
    1b48:	e55b2005 	ldrb	r2, [fp, #-5]
    1b4c:	e3023a50 	movw	r3, #10832	@ 0x2a50
    1b50:	e3403000 	movt	r3, #0
    1b54:	e3a01f82 	mov	r1, #520	@ 0x208
    1b58:	e0020291 	mul	r2, r1, r2
    1b5c:	e0833002 	add	r3, r3, r2
    1b60:	e5933000 	ldr	r3, [r3]
    1b64:	e2833001 	add	r3, r3, #1
    1b68:	e55b1005 	ldrb	r1, [fp, #-5]
    1b6c:	e7e82053 	ubfx	r2, r3, #0, #9
    1b70:	e3023a50 	movw	r3, #10832	@ 0x2a50
    1b74:	e3403000 	movt	r3, #0
    1b78:	e3a00f82 	mov	r0, #520	@ 0x208
    1b7c:	e0010190 	mul	r1, r0, r1
    1b80:	e0833001 	add	r3, r3, r1
    1b84:	e5832000 	str	r2, [r3]
  
  *out_data = sMsgQ[Qname].Queue[sMsgQ[Qname].front];
    1b88:	e55b1005 	ldrb	r1, [fp, #-5]
    1b8c:	e55b2005 	ldrb	r2, [fp, #-5]
    1b90:	e3023a50 	movw	r3, #10832	@ 0x2a50
    1b94:	e3403000 	movt	r3, #0
    1b98:	e3a00f82 	mov	r0, #520	@ 0x208
    1b9c:	e0020290 	mul	r2, r0, r2
    1ba0:	e0833002 	add	r3, r3, r2
    1ba4:	e5932000 	ldr	r2, [r3]
    1ba8:	e3023a50 	movw	r3, #10832	@ 0x2a50
    1bac:	e3403000 	movt	r3, #0
    1bb0:	e3a00f82 	mov	r0, #520	@ 0x208
    1bb4:	e0010190 	mul	r1, r0, r1
    1bb8:	e0833001 	add	r3, r3, r1
    1bbc:	e0833002 	add	r3, r3, r2
    1bc0:	e2833008 	add	r3, r3, #8
    1bc4:	e5d32000 	ldrb	r2, [r3]
    1bc8:	e51b300c 	ldr	r3, [fp, #-12]
    1bcc:	e5c32000 	strb	r2, [r3]

  return true;
    1bd0:	e3a03001 	mov	r3, #1
    1bd4:	e1a00003 	mov	r0, r3
    1bd8:	e24bd004 	sub	sp, fp, #4
    1bdc:	e8bd8800 	pop	{fp, pc}

00001be0 <Kernel_sem_init>:
#define DEF_SEM_MAX 8

static int32_t sSemMax;
static int32_t sSem;

void Kernel_sem_init(int32_t max) {
    1be0:	e52db004 	push	{fp}		@ (str fp, [sp, #-4]!)
    1be4:	e28db000 	add	fp, sp, #0
    1be8:	e24dd00c 	sub	sp, sp, #12
    1bec:	e50b0008 	str	r0, [fp, #-8]
  sSemMax = (max >= DEF_SEM_MAX) ? DEF_SEM_MAX : max;
    1bf0:	e51b3008 	ldr	r3, [fp, #-8]
    1bf4:	e3530008 	cmp	r3, #8
    1bf8:	b1a02003 	movlt	r2, r3
    1bfc:	a3a02008 	movge	r2, #8
    1c00:	e3033068 	movw	r3, #12392	@ 0x3068
    1c04:	e3403000 	movt	r3, #0
    1c08:	e5832000 	str	r2, [r3]

  sSem = sSemMax;
    1c0c:	e3033068 	movw	r3, #12392	@ 0x3068
    1c10:	e3403000 	movt	r3, #0
    1c14:	e5932000 	ldr	r2, [r3]
    1c18:	e303306c 	movw	r3, #12396	@ 0x306c
    1c1c:	e3403000 	movt	r3, #0
    1c20:	e5832000 	str	r2, [r3]
}
    1c24:	e320f000 	nop	{0}
    1c28:	e28bd000 	add	sp, fp, #0
    1c2c:	e49db004 	pop	{fp}		@ (ldr fp, [sp], #4)
    1c30:	e12fff1e 	bx	lr

00001c34 <Kernel_sem_test>:
bool Kernel_sem_test(void) {
    1c34:	e52db004 	push	{fp}		@ (str fp, [sp, #-4]!)
    1c38:	e28db000 	add	fp, sp, #0
  if(sSem <= 0) {
    1c3c:	e303306c 	movw	r3, #12396	@ 0x306c
    1c40:	e3403000 	movt	r3, #0
    1c44:	e5933000 	ldr	r3, [r3]
    1c48:	e3530000 	cmp	r3, #0
    1c4c:	ca000001 	bgt	1c58 <Kernel_sem_test+0x24>
    return false;
    1c50:	e3a03000 	mov	r3, #0
    1c54:	ea000007 	b	1c78 <Kernel_sem_test+0x44>
  }
  --sSem;
    1c58:	e303306c 	movw	r3, #12396	@ 0x306c
    1c5c:	e3403000 	movt	r3, #0
    1c60:	e5933000 	ldr	r3, [r3]
    1c64:	e2432001 	sub	r2, r3, #1
    1c68:	e303306c 	movw	r3, #12396	@ 0x306c
    1c6c:	e3403000 	movt	r3, #0
    1c70:	e5832000 	str	r2, [r3]
  return true;
    1c74:	e3a03001 	mov	r3, #1
}
    1c78:	e1a00003 	mov	r0, r3
    1c7c:	e28bd000 	add	sp, fp, #0
    1c80:	e49db004 	pop	{fp}		@ (ldr fp, [sp], #4)
    1c84:	e12fff1e 	bx	lr

00001c88 <Kernel_sem_release>:
void Kernel_sem_release(void) {
    1c88:	e52db004 	push	{fp}		@ (str fp, [sp, #-4]!)
    1c8c:	e28db000 	add	fp, sp, #0
  ++sSem;
    1c90:	e303306c 	movw	r3, #12396	@ 0x306c
    1c94:	e3403000 	movt	r3, #0
    1c98:	e5933000 	ldr	r3, [r3]
    1c9c:	e2832001 	add	r2, r3, #1
    1ca0:	e303306c 	movw	r3, #12396	@ 0x306c
    1ca4:	e3403000 	movt	r3, #0
    1ca8:	e5832000 	str	r2, [r3]
  if(sSem >= sSemMax) {
    1cac:	e303306c 	movw	r3, #12396	@ 0x306c
    1cb0:	e3403000 	movt	r3, #0
    1cb4:	e5932000 	ldr	r2, [r3]
    1cb8:	e3033068 	movw	r3, #12392	@ 0x3068
    1cbc:	e3403000 	movt	r3, #0
    1cc0:	e5933000 	ldr	r3, [r3]
    1cc4:	e1520003 	cmp	r2, r3
    1cc8:	ba000005 	blt	1ce4 <Kernel_sem_release+0x5c>
    sSem = sSemMax;
    1ccc:	e3033068 	movw	r3, #12392	@ 0x3068
    1cd0:	e3403000 	movt	r3, #0
    1cd4:	e5932000 	ldr	r2, [r3]
    1cd8:	e303306c 	movw	r3, #12396	@ 0x306c
    1cdc:	e3403000 	movt	r3, #0
    1ce0:	e5832000 	str	r2, [r3]
  }
}
    1ce4:	e320f000 	nop	{0}
    1ce8:	e28bd000 	add	sp, fp, #0
    1cec:	e49db004 	pop	{fp}		@ (ldr fp, [sp], #4)
    1cf0:	e12fff1e 	bx	lr

00001cf4 <Kernel_mutex_init>:

static KernelMutext_t sMutex;
void Kernel_mutex_init(void) {
    1cf4:	e52db004 	push	{fp}		@ (str fp, [sp, #-4]!)
    1cf8:	e28db000 	add	fp, sp, #0
  sMutex.owner = 0;
    1cfc:	e3033070 	movw	r3, #12400	@ 0x3070
    1d00:	e3403000 	movt	r3, #0
    1d04:	e3a02000 	mov	r2, #0
    1d08:	e5832000 	str	r2, [r3]
  sMutex.lock = false;
    1d0c:	e3033070 	movw	r3, #12400	@ 0x3070
    1d10:	e3403000 	movt	r3, #0
    1d14:	e3a02000 	mov	r2, #0
    1d18:	e5c32004 	strb	r2, [r3, #4]
}
    1d1c:	e320f000 	nop	{0}
    1d20:	e28bd000 	add	sp, fp, #0
    1d24:	e49db004 	pop	{fp}		@ (ldr fp, [sp], #4)
    1d28:	e12fff1e 	bx	lr

00001d2c <Kernel_mutex_lock>:
bool Kernel_mutex_lock(uint32_t owner) {
    1d2c:	e52db004 	push	{fp}		@ (str fp, [sp, #-4]!)
    1d30:	e28db000 	add	fp, sp, #0
    1d34:	e24dd00c 	sub	sp, sp, #12
    1d38:	e50b0008 	str	r0, [fp, #-8]
  if(sMutex.lock) {
    1d3c:	e3033070 	movw	r3, #12400	@ 0x3070
    1d40:	e3403000 	movt	r3, #0
    1d44:	e5d33004 	ldrb	r3, [r3, #4]
    1d48:	e3530000 	cmp	r3, #0
    1d4c:	0a000001 	beq	1d58 <Kernel_mutex_lock+0x2c>
    return false;
    1d50:	e3a03000 	mov	r3, #0
    1d54:	ea000008 	b	1d7c <Kernel_mutex_lock+0x50>
  }

  sMutex.owner = owner;
    1d58:	e3033070 	movw	r3, #12400	@ 0x3070
    1d5c:	e3403000 	movt	r3, #0
    1d60:	e51b2008 	ldr	r2, [fp, #-8]
    1d64:	e5832000 	str	r2, [r3]
  sMutex.lock = true;
    1d68:	e3033070 	movw	r3, #12400	@ 0x3070
    1d6c:	e3403000 	movt	r3, #0
    1d70:	e3a02001 	mov	r2, #1
    1d74:	e5c32004 	strb	r2, [r3, #4]
  return true;
    1d78:	e3a03001 	mov	r3, #1
}
    1d7c:	e1a00003 	mov	r0, r3
    1d80:	e28bd000 	add	sp, fp, #0
    1d84:	e49db004 	pop	{fp}		@ (ldr fp, [sp], #4)
    1d88:	e12fff1e 	bx	lr

00001d8c <Kernel_mutex_unlock>:
bool Kernel_mutex_unlock(uint32_t owner) {
    1d8c:	e52db004 	push	{fp}		@ (str fp, [sp, #-4]!)
    1d90:	e28db000 	add	fp, sp, #0
    1d94:	e24dd00c 	sub	sp, sp, #12
    1d98:	e50b0008 	str	r0, [fp, #-8]
  if (owner == sMutex.owner) {
    1d9c:	e3033070 	movw	r3, #12400	@ 0x3070
    1da0:	e3403000 	movt	r3, #0
    1da4:	e5933000 	ldr	r3, [r3]
    1da8:	e51b2008 	ldr	r2, [fp, #-8]
    1dac:	e1520003 	cmp	r2, r3
    1db0:	1a000005 	bne	1dcc <Kernel_mutex_unlock+0x40>
    sMutex.lock = false;
    1db4:	e3033070 	movw	r3, #12400	@ 0x3070
    1db8:	e3403000 	movt	r3, #0
    1dbc:	e3a02000 	mov	r2, #0
    1dc0:	e5c32004 	strb	r2, [r3, #4]
    return true;
    1dc4:	e3a03001 	mov	r3, #1
    1dc8:	ea000000 	b	1dd0 <Kernel_mutex_unlock+0x44>
  }
  return false;
    1dcc:	e3a03000 	mov	r3, #0
    1dd0:	e1a00003 	mov	r0, r3
    1dd4:	e28bd000 	add	sp, fp, #0
    1dd8:	e49db004 	pop	{fp}		@ (ldr fp, [sp], #4)
    1ddc:	e12fff1e 	bx	lr

00001de0 <Kernel_task_init>:

static KernelTcb_t* Scheduler_round_robin(void);
static __attribute__ ((naked)) void Kernel_task_context_switching(void);

static uint32_t cpsr_cp;
void Kernel_task_init(void) {
    1de0:	e52db004 	push	{fp}		@ (str fp, [sp, #-4]!)
    1de4:	e28db000 	add	fp, sp, #0
    1de8:	e24dd00c 	sub	sp, sp, #12
  sAllocated_tcb_index = 0;
    1dec:	e3033278 	movw	r3, #12920	@ 0x3278
    1df0:	e3403000 	movt	r3, #0
    1df4:	e3a02000 	mov	r2, #0
    1df8:	e5832000 	str	r2, [r3]
  sCurrent_tcb_index = 0;
    1dfc:	e303327c 	movw	r3, #12924	@ 0x327c
    1e00:	e3403000 	movt	r3, #0
    1e04:	e3a02000 	mov	r2, #0
    1e08:	e5832000 	str	r2, [r3]

  __asm__ ("MRS r0, cpsr");
    1e0c:	e10f0000 	mrs	r0, CPSR
  __asm__ ("LDR r1, =cpsr_cp");
    1e10:	e59f12fc 	ldr	r1, [pc, #764]	@ 2114 <Kernel_task_context_switching+0x3c>
  __asm__ ("STR r0, [r1]");
    1e14:	e5810000 	str	r0, [r1]

  for (uint32_t i = 0; i < MAX_TASK_NUM; ++i) {
    1e18:	e3a03000 	mov	r3, #0
    1e1c:	e50b3008 	str	r3, [fp, #-8]
    1e20:	ea00002b 	b	1ed4 <Kernel_task_init+0xf4>
    sTask_list[i].stack_base = (uint8_t*)(TASK_STACK_START + (i * USR_TASK_STACK_SIZE));
    1e24:	e51b3008 	ldr	r3, [fp, #-8]
    1e28:	e2833008 	add	r3, r3, #8
    1e2c:	e1a03a03 	lsl	r3, r3, #20
    1e30:	e1a01003 	mov	r1, r3
    1e34:	e3032078 	movw	r2, #12408	@ 0x3078
    1e38:	e3402000 	movt	r2, #0
    1e3c:	e51b3008 	ldr	r3, [fp, #-8]
    1e40:	e1a03183 	lsl	r3, r3, #3
    1e44:	e0823003 	add	r3, r2, r3
    1e48:	e5831004 	str	r1, [r3, #4]
    sTask_list[i].sp = (uint32_t)sTask_list[i].stack_base + USR_TASK_STACK_SIZE - 4;
    1e4c:	e3032078 	movw	r2, #12408	@ 0x3078
    1e50:	e3402000 	movt	r2, #0
    1e54:	e51b3008 	ldr	r3, [fp, #-8]
    1e58:	e1a03183 	lsl	r3, r3, #3
    1e5c:	e0823003 	add	r3, r2, r3
    1e60:	e5933004 	ldr	r3, [r3, #4]
    1e64:	e243324f 	sub	r3, r3, #-268435452	@ 0xf0000004
    1e68:	e24336ff 	sub	r3, r3, #267386880	@ 0xff00000
    1e6c:	e3032078 	movw	r2, #12408	@ 0x3078
    1e70:	e3402000 	movt	r2, #0
    1e74:	e51b1008 	ldr	r1, [fp, #-8]
    1e78:	e7823181 	str	r3, [r2, r1, lsl #3]

    sTask_list[i].sp -= sizeof(KernelTaskContext_t);
    1e7c:	e3033078 	movw	r3, #12408	@ 0x3078
    1e80:	e3403000 	movt	r3, #0
    1e84:	e51b2008 	ldr	r2, [fp, #-8]
    1e88:	e7933182 	ldr	r3, [r3, r2, lsl #3]
    1e8c:	e243103c 	sub	r1, r3, #60	@ 0x3c
    1e90:	e3033078 	movw	r3, #12408	@ 0x3078
    1e94:	e3403000 	movt	r3, #0
    1e98:	e51b2008 	ldr	r2, [fp, #-8]
    1e9c:	e7831182 	str	r1, [r3, r2, lsl #3]
    KernelTaskContext_t* ctx = (KernelTaskContext_t*)sTask_list[i].sp;
    1ea0:	e3033078 	movw	r3, #12408	@ 0x3078
    1ea4:	e3403000 	movt	r3, #0
    1ea8:	e51b2008 	ldr	r2, [fp, #-8]
    1eac:	e7933182 	ldr	r3, [r3, r2, lsl #3]
    1eb0:	e50b300c 	str	r3, [fp, #-12]
    ctx->spsr = cpsr_cp;
    1eb4:	e3033288 	movw	r3, #12936	@ 0x3288
    1eb8:	e3403000 	movt	r3, #0
    1ebc:	e5932000 	ldr	r2, [r3]
    1ec0:	e51b300c 	ldr	r3, [fp, #-12]
    1ec4:	e5832000 	str	r2, [r3]
  for (uint32_t i = 0; i < MAX_TASK_NUM; ++i) {
    1ec8:	e51b3008 	ldr	r3, [fp, #-8]
    1ecc:	e2833001 	add	r3, r3, #1
    1ed0:	e50b3008 	str	r3, [fp, #-8]
    1ed4:	e51b3008 	ldr	r3, [fp, #-8]
    1ed8:	e353003f 	cmp	r3, #63	@ 0x3f
    1edc:	9affffd0 	bls	1e24 <Kernel_task_init+0x44>
  }
}
    1ee0:	e320f000 	nop	{0}
    1ee4:	e320f000 	nop	{0}
    1ee8:	e28bd000 	add	sp, fp, #0
    1eec:	e49db004 	pop	{fp}		@ (ldr fp, [sp], #4)
    1ef0:	e12fff1e 	bx	lr

00001ef4 <Kernel_task_create>:

uint32_t Kernel_task_create(KernelTaskFunc_t startFunc) {
    1ef4:	e52db004 	push	{fp}		@ (str fp, [sp, #-4]!)
    1ef8:	e28db000 	add	fp, sp, #0
    1efc:	e24dd014 	sub	sp, sp, #20
    1f00:	e50b0010 	str	r0, [fp, #-16]
  KernelTcb_t* new_tcb = &sTask_list[sAllocated_tcb_index++];
    1f04:	e3033278 	movw	r3, #12920	@ 0x3278
    1f08:	e3403000 	movt	r3, #0
    1f0c:	e5932000 	ldr	r2, [r3]
    1f10:	e2821001 	add	r1, r2, #1
    1f14:	e3033278 	movw	r3, #12920	@ 0x3278
    1f18:	e3403000 	movt	r3, #0
    1f1c:	e5831000 	str	r1, [r3]
    1f20:	e1a02182 	lsl	r2, r2, #3
    1f24:	e3033078 	movw	r3, #12408	@ 0x3078
    1f28:	e3403000 	movt	r3, #0
    1f2c:	e0823003 	add	r3, r2, r3
    1f30:	e50b3008 	str	r3, [fp, #-8]

  if (sAllocated_tcb_index > MAX_TASK_NUM) {
    1f34:	e3033278 	movw	r3, #12920	@ 0x3278
    1f38:	e3403000 	movt	r3, #0
    1f3c:	e5933000 	ldr	r3, [r3]
    1f40:	e3530040 	cmp	r3, #64	@ 0x40
    1f44:	9a000001 	bls	1f50 <Kernel_task_create+0x5c>
    return NOT_ENOUGH_TASK_NUM;
    1f48:	e3e03000 	mvn	r3, #0
    1f4c:	ea000009 	b	1f78 <Kernel_task_create+0x84>
  }

  KernelTaskContext_t* ctx = (KernelTaskContext_t*)new_tcb->sp;
    1f50:	e51b3008 	ldr	r3, [fp, #-8]
    1f54:	e5933000 	ldr	r3, [r3]
    1f58:	e50b300c 	str	r3, [fp, #-12]
  ctx->pc = (uint32_t)startFunc;
    1f5c:	e51b2010 	ldr	r2, [fp, #-16]
    1f60:	e51b300c 	ldr	r3, [fp, #-12]
    1f64:	e5832038 	str	r2, [r3, #56]	@ 0x38

  return (sAllocated_tcb_index - 1);
    1f68:	e3033278 	movw	r3, #12920	@ 0x3278
    1f6c:	e3403000 	movt	r3, #0
    1f70:	e5933000 	ldr	r3, [r3]
    1f74:	e2433001 	sub	r3, r3, #1
}
    1f78:	e1a00003 	mov	r0, r3
    1f7c:	e28bd000 	add	sp, fp, #0
    1f80:	e49db004 	pop	{fp}		@ (ldr fp, [sp], #4)
    1f84:	e12fff1e 	bx	lr

00001f88 <Kernel_task_scheduling>:

void Kernel_task_scheduling(void) {
    1f88:	e92d4800 	push	{fp, lr}
    1f8c:	e28db004 	add	fp, sp, #4
  sCurrent_tcb = &sTask_list[sCurrent_tcb_index];
    1f90:	e303327c 	movw	r3, #12924	@ 0x327c
    1f94:	e3403000 	movt	r3, #0
    1f98:	e5933000 	ldr	r3, [r3]
    1f9c:	e1a02183 	lsl	r2, r3, #3
    1fa0:	e3033078 	movw	r3, #12408	@ 0x3078
    1fa4:	e3403000 	movt	r3, #0
    1fa8:	e0822003 	add	r2, r2, r3
    1fac:	e3033280 	movw	r3, #12928	@ 0x3280
    1fb0:	e3403000 	movt	r3, #0
    1fb4:	e5832000 	str	r2, [r3]
  sNext_tcb = Scheduler_round_robin();
    1fb8:	eb000026 	bl	2058 <Scheduler_round_robin>
    1fbc:	e1a02000 	mov	r2, r0
    1fc0:	e3033284 	movw	r3, #12932	@ 0x3284
    1fc4:	e3403000 	movt	r3, #0
    1fc8:	e5832000 	str	r2, [r3]

  Kernel_task_context_switching();
    1fcc:	eb000041 	bl	20d8 <Kernel_task_context_switching>
}
    1fd0:	e320f000 	nop	{0}
    1fd4:	e8bd8800 	pop	{fp, pc}

00001fd8 <Kernel_task_start>:

void Kernel_task_start(void) {
    1fd8:	e52db004 	push	{fp}		@ (str fp, [sp, #-4]!)
    1fdc:	e28db000 	add	fp, sp, #0
  sNext_tcb = &sTask_list[sCurrent_tcb_index];
    1fe0:	e303327c 	movw	r3, #12924	@ 0x327c
    1fe4:	e3403000 	movt	r3, #0
    1fe8:	e5933000 	ldr	r3, [r3]
    1fec:	e1a02183 	lsl	r2, r3, #3
    1ff0:	e3033078 	movw	r3, #12408	@ 0x3078
    1ff4:	e3403000 	movt	r3, #0
    1ff8:	e0822003 	add	r2, r2, r3
    1ffc:	e3033284 	movw	r3, #12932	@ 0x3284
    2000:	e3403000 	movt	r3, #0
    2004:	e5832000 	str	r2, [r3]
  __asm__ ("LDR r0, =sNext_tcb");
    2008:	e59f0108 	ldr	r0, [pc, #264]	@ 2118 <Kernel_task_context_switching+0x40>
  __asm__ ("LDR r0, [r0]");
    200c:	e5900000 	ldr	r0, [r0]
  __asm__ ("LDMIA r0!, {sp}");
    2010:	e8b02000 	ldm	r0!, {sp}

  __asm__ ("POP {r0}");
    2014:	e49d0004 	pop	{r0}		@ (ldr r0, [sp], #4)
  __asm__ ("MSR cpsr, r0");
    2018:	e129f000 	msr	CPSR_fc, r0
  __asm__ ("POP {r0, r1, r2, r3, r4, r5, r6, r7, r8, r9, r10, r11, r12}"); // 쓰레기 값들로 채워짐
    201c:	e8bd1fff 	pop	{r0, r1, r2, r3, r4, r5, r6, r7, r8, r9, sl, fp, ip}
  __asm__ ("POP {pc}"); // 태스크 함수의 위치로 점프
    2020:	e49df004 	pop	{pc}		@ (ldr pc, [sp], #4)
}
    2024:	e320f000 	nop	{0}
    2028:	e28bd000 	add	sp, fp, #0
    202c:	e49db004 	pop	{fp}		@ (ldr fp, [sp], #4)
    2030:	e12fff1e 	bx	lr

00002034 <Kernel_task_get_current_task_id>:

uint32_t Kernel_task_get_current_task_id(void) {
    2034:	e52db004 	push	{fp}		@ (str fp, [sp, #-4]!)
    2038:	e28db000 	add	fp, sp, #0
  return sCurrent_tcb_index;
    203c:	e303327c 	movw	r3, #12924	@ 0x327c
    2040:	e3403000 	movt	r3, #0
    2044:	e5933000 	ldr	r3, [r3]
}
    2048:	e1a00003 	mov	r0, r3
    204c:	e28bd000 	add	sp, fp, #0
    2050:	e49db004 	pop	{fp}		@ (ldr fp, [sp], #4)
    2054:	e12fff1e 	bx	lr

00002058 <Scheduler_round_robin>:

static KernelTcb_t* Scheduler_round_robin(void) {
    2058:	e92d4800 	push	{fp, lr}
    205c:	e28db004 	add	fp, sp, #4
  ++sCurrent_tcb_index;
    2060:	e303327c 	movw	r3, #12924	@ 0x327c
    2064:	e3403000 	movt	r3, #0
    2068:	e5933000 	ldr	r3, [r3]
    206c:	e2832001 	add	r2, r3, #1
    2070:	e303327c 	movw	r3, #12924	@ 0x327c
    2074:	e3403000 	movt	r3, #0
    2078:	e5832000 	str	r2, [r3]
  sCurrent_tcb_index %= sAllocated_tcb_index;
    207c:	e303327c 	movw	r3, #12924	@ 0x327c
    2080:	e3403000 	movt	r3, #0
    2084:	e5932000 	ldr	r2, [r3]
    2088:	e3033278 	movw	r3, #12920	@ 0x3278
    208c:	e3403000 	movt	r3, #0
    2090:	e5933000 	ldr	r3, [r3]
    2094:	e1a01003 	mov	r1, r3
    2098:	e1a00002 	mov	r0, r2
    209c:	eb00005c 	bl	2214 <__aeabi_uidivmod>
    20a0:	e1a03001 	mov	r3, r1
    20a4:	e1a02003 	mov	r2, r3
    20a8:	e303327c 	movw	r3, #12924	@ 0x327c
    20ac:	e3403000 	movt	r3, #0
    20b0:	e5832000 	str	r2, [r3]

  return &sTask_list[sCurrent_tcb_index];
    20b4:	e303327c 	movw	r3, #12924	@ 0x327c
    20b8:	e3403000 	movt	r3, #0
    20bc:	e5933000 	ldr	r3, [r3]
    20c0:	e1a02183 	lsl	r2, r3, #3
    20c4:	e3033078 	movw	r3, #12408	@ 0x3078
    20c8:	e3403000 	movt	r3, #0
    20cc:	e0823003 	add	r3, r2, r3
}
    20d0:	e1a00003 	mov	r0, r3
    20d4:	e8bd8800 	pop	{fp, pc}

000020d8 <Kernel_task_context_switching>:

static __attribute__ ((naked)) void Kernel_task_context_switching(void) {
  // 1. Save context

  // save current task context into the current task stack
  __asm__ ("PUSH {lr}");
    20d8:	e52de004 	push	{lr}		@ (str lr, [sp, #-4]!)
  __asm__ ("PUSH {r0, r1, r2, r3, r4, r5, r6, r7, r8, r9, r10, r11, r12}");
    20dc:	e92d1fff 	push	{r0, r1, r2, r3, r4, r5, r6, r7, r8, r9, sl, fp, ip}
  __asm__ ("MRS r0, cpsr");
    20e0:	e10f0000 	mrs	r0, CPSR
  __asm__ ("PUSH {r0}");
    20e4:	e52d0004 	push	{r0}		@ (str r0, [sp, #-4]!)
  // save current task stack pointer into the current TCB
  __asm__ ("LDR r0, =sCurrent_tcb");
    20e8:	e59f002c 	ldr	r0, [pc, #44]	@ 211c <Kernel_task_context_switching+0x44>
  __asm__ ("LDR r0, [r0]");
    20ec:	e5900000 	ldr	r0, [r0]
  __asm__ ("STMIA r0!, {sp}");
    20f0:	e8a02000 	stmia	r0!, {sp}

  // 2. Restore context

  // restore next task stack pointer from the next TCB
  __asm__ ("LDR r0, =sNext_tcb");
    20f4:	e59f001c 	ldr	r0, [pc, #28]	@ 2118 <Kernel_task_context_switching+0x40>
  __asm__ ("LDR r0, [r0]");
    20f8:	e5900000 	ldr	r0, [r0]
  __asm__ ("LDMIA r0!, {sp}");
    20fc:	e8b02000 	ldm	r0!, {sp}
  // restore next task context from the next task stack
  __asm__ ("POP {r0}");
    2100:	e49d0004 	pop	{r0}		@ (ldr r0, [sp], #4)
  __asm__ ("MSR cpsr, r0");
    2104:	e129f000 	msr	CPSR_fc, r0
  __asm__ ("POP {r0, r1, r2, r3, r4, r5, r6, r7, r8, r9, r10, r11, r12}");
    2108:	e8bd1fff 	pop	{r0, r1, r2, r3, r4, r5, r6, r7, r8, r9, sl, fp, ip}
  __asm__ ("POP {pc}");
    210c:	e49df004 	pop	{pc}		@ (ldr pc, [sp], #4)
    2110:	e320f000 	nop	{0}
    2114:	00003288 	andeq	r3, r0, r8, lsl #5
    2118:	00003284 	andeq	r3, r0, r4, lsl #5
    211c:	00003280 	andeq	r3, r0, r0, lsl #5

00002120 <__udivsi3>:
    2120:	e2512001 	subs	r2, r1, #1
    2124:	012fff1e 	bxeq	lr
    2128:	3a000036 	bcc	2208 <__udivsi3+0xe8>
    212c:	e1500001 	cmp	r0, r1
    2130:	9a000022 	bls	21c0 <__udivsi3+0xa0>
    2134:	e1110002 	tst	r1, r2
    2138:	0a000023 	beq	21cc <__udivsi3+0xac>
    213c:	e311020e 	tst	r1, #-536870912	@ 0xe0000000
    2140:	01a01181 	lsleq	r1, r1, #3
    2144:	03a03008 	moveq	r3, #8
    2148:	13a03001 	movne	r3, #1
    214c:	e3510201 	cmp	r1, #268435456	@ 0x10000000
    2150:	31510000 	cmpcc	r1, r0
    2154:	31a01201 	lslcc	r1, r1, #4
    2158:	31a03203 	lslcc	r3, r3, #4
    215c:	3afffffa 	bcc	214c <__udivsi3+0x2c>
    2160:	e3510102 	cmp	r1, #-2147483648	@ 0x80000000
    2164:	31510000 	cmpcc	r1, r0
    2168:	31a01081 	lslcc	r1, r1, #1
    216c:	31a03083 	lslcc	r3, r3, #1
    2170:	3afffffa 	bcc	2160 <__udivsi3+0x40>
    2174:	e3a02000 	mov	r2, #0
    2178:	e1500001 	cmp	r0, r1
    217c:	20400001 	subcs	r0, r0, r1
    2180:	21822003 	orrcs	r2, r2, r3
    2184:	e15000a1 	cmp	r0, r1, lsr #1
    2188:	204000a1 	subcs	r0, r0, r1, lsr #1
    218c:	218220a3 	orrcs	r2, r2, r3, lsr #1
    2190:	e1500121 	cmp	r0, r1, lsr #2
    2194:	20400121 	subcs	r0, r0, r1, lsr #2
    2198:	21822123 	orrcs	r2, r2, r3, lsr #2
    219c:	e15001a1 	cmp	r0, r1, lsr #3
    21a0:	204001a1 	subcs	r0, r0, r1, lsr #3
    21a4:	218221a3 	orrcs	r2, r2, r3, lsr #3
    21a8:	e3500000 	cmp	r0, #0
    21ac:	11b03223 	lsrsne	r3, r3, #4
    21b0:	11a01221 	lsrne	r1, r1, #4
    21b4:	1affffef 	bne	2178 <__udivsi3+0x58>
    21b8:	e1a00002 	mov	r0, r2
    21bc:	e12fff1e 	bx	lr
    21c0:	03a00001 	moveq	r0, #1
    21c4:	13a00000 	movne	r0, #0
    21c8:	e12fff1e 	bx	lr
    21cc:	e3510801 	cmp	r1, #65536	@ 0x10000
    21d0:	21a01821 	lsrcs	r1, r1, #16
    21d4:	23a02010 	movcs	r2, #16
    21d8:	33a02000 	movcc	r2, #0
    21dc:	e3510c01 	cmp	r1, #256	@ 0x100
    21e0:	21a01421 	lsrcs	r1, r1, #8
    21e4:	22822008 	addcs	r2, r2, #8
    21e8:	e3510010 	cmp	r1, #16
    21ec:	21a01221 	lsrcs	r1, r1, #4
    21f0:	22822004 	addcs	r2, r2, #4
    21f4:	e3510004 	cmp	r1, #4
    21f8:	82822003 	addhi	r2, r2, #3
    21fc:	908220a1 	addls	r2, r2, r1, lsr #1
    2200:	e1a00230 	lsr	r0, r0, r2
    2204:	e12fff1e 	bx	lr
    2208:	e3500000 	cmp	r0, #0
    220c:	13e00000 	mvnne	r0, #0
    2210:	ea000007 	b	2234 <__aeabi_idiv0>

00002214 <__aeabi_uidivmod>:
    2214:	e3510000 	cmp	r1, #0
    2218:	0afffffa 	beq	2208 <__udivsi3+0xe8>
    221c:	e92d4003 	push	{r0, r1, lr}
    2220:	ebffffbe 	bl	2120 <__udivsi3>
    2224:	e8bd4006 	pop	{r1, r2, lr}
    2228:	e0030092 	mul	r3, r2, r0
    222c:	e0411003 	sub	r1, r1, r3
    2230:	e12fff1e 	bx	lr

00002234 <__aeabi_idiv0>:
    2234:	e12fff1e 	bx	lr
